(dp0
I68312
(lp1
(dp2
I0
(dp3
S'info_dict'
p4
(dp5
S'post_synapse_id'
p6
I0
sS'post_netcon'
p7
(dp8
S'delay'
p9
cnumpy.core.multiarray
scalar
p10
(cnumpy
dtype
p11
(S'f8'
p12
I0
I1
tp13
Rp14
(I3
S'<'
p15
NNNI-1
I-1
I0
tp16
bS'\x00\x00\x00@\xf0\xa7\xf3?'
p17
tp18
Rp19
sS'weight'
p20
g10
(g14
S'\x00\x00\x00\x80U\x1b\xe3?'
p21
tp22
Rp23
ssS'pre_cell_id'
p24
I38873
sS'post_cell_id'
p25
I68312
sssI1
(dp26
g4
(dp27
g6
I1
sg7
(dp28
g9
g10
(g14
S'\x00\x00\x00\xe0\xc7~\xf9?'
p29
tp30
Rp31
sg20
g10
(g14
S'\x00\x00\x00`<\xc7\xe3?'
p32
tp33
Rp34
ssg24
I38873
sg25
I68312
sssI2
(dp35
g4
(dp36
g6
I2
sg7
(dp37
g9
g10
(g14
S'\x00\x00\x00\xa0\xab\xd2\xf9?'
p38
tp39
Rp40
sg20
g10
(g14
S'\x00\x00\x00\xc0\x14\x14\xdf?'
p41
tp42
Rp43
ssg24
I38873
sg25
I68312
sssI3
(dp44
g4
(dp45
g6
I3
sg7
(dp46
g9
g10
(g14
S'\x00\x00\x00\xa0fl\xfb?'
p47
tp48
Rp49
sg20
g10
(g14
S'\x00\x00\x00 \xc7\xcf\xdf?'
p50
tp51
Rp52
ssg24
I38873
sg25
I68312
sssI4
(dp53
g4
(dp54
g6
I4
sg7
(dp55
g9
g10
(g14
S'\x00\x00\x00\x80_\xbd\x00@'
p56
tp57
Rp58
sg20
g10
(g14
S'\x00\x00\x00 S\xc5\xd1?'
p59
tp60
Rp61
ssg24
I40579
sg25
I68312
sssI5
(dp62
g4
(dp63
g6
I5
sg7
(dp64
g9
g10
(g14
S'\x00\x00\x00\xa0\xbc\xcc\x00@'
p65
tp66
Rp67
sg20
g10
(g14
S'\x00\x00\x00\xc0\xf6z\xd8?'
p68
tp69
Rp70
ssg24
I40579
sg25
I68312
sssI6
(dp71
g4
(dp72
g6
I6
sg7
(dp73
g9
g10
(g14
S'\x00\x00\x00\xc0\xc7\xc9\x00@'
p74
tp75
Rp76
sg20
g10
(g14
S'\x00\x00\x00@\xdd\xc9\xe2?'
p77
tp78
Rp79
ssg24
I40579
sg25
I68312
sssI7
(dp80
g4
(dp81
g6
I7
sg7
(dp82
g9
g10
(g14
S'\x00\x00\x00\x00\x17\xef\xfc?'
p83
tp84
Rp85
sg20
g10
(g14
S'\x00\x00\x00`2\t\xd7?'
p86
tp87
Rp88
ssg24
I63421
sg25
I68312
sssI8
(dp89
g4
(dp90
g6
I8
sg7
(dp91
g9
g10
(g14
S'\x00\x00\x00\xe0\xdan\xfd?'
p92
tp93
Rp94
sg20
g10
(g14
S'\x00\x00\x00 \xd7h\xe2?'
p95
tp96
Rp97
ssg24
I63421
sg25
I68312
sssI9
(dp98
g4
(dp99
g6
I9
sg7
(dp100
g9
g10
(g14
S'\x00\x00\x00\xa0g\xc5\xfd?'
p101
tp102
Rp103
sg20
g10
(g14
S'\x00\x00\x00\xe0\xeb\xb9\xe5?'
p104
tp105
Rp106
ssg24
I63421
sg25
I68312
sssI10
(dp107
g4
(dp108
g6
I10
sg7
(dp109
g9
g10
(g14
S'\x00\x00\x00`\x89\x1a\xfe?'
p110
tp111
Rp112
sg20
g10
(g14
S'\x00\x00\x00\xa0\x1dn\xe5?'
p113
tp114
Rp115
ssg24
I63421
sg25
I68312
sssI11
(dp116
g4
(dp117
g6
I11
sg7
(dp118
g9
g10
(g14
S'\x00\x00\x00\xc0\xb4$\xfe?'
p119
tp120
Rp121
sg20
g10
(g14
S'\x00\x00\x00\xa0\xc0\x10\xd7?'
p122
tp123
Rp124
ssg24
I63421
sg25
I68312
sssI12
(dp125
g4
(dp126
g6
I12
sg7
(dp127
g9
g10
(g14
S'\x00\x00\x00\x00\xd5+\xf9?'
p128
tp129
Rp130
sg20
g10
(g14
S'\x00\x00\x00\xc0\x18\xbe\xe1?'
p131
tp132
Rp133
ssg24
I63696
sg25
I68312
sssI13
(dp134
g4
(dp135
g6
I13
sg7
(dp136
g9
g10
(g14
S'\x00\x00\x00\xa0\r\xcd\xfb?'
p137
tp138
Rp139
sg20
g10
(g14
S'\x00\x00\x00\xe02\xcc\xdc?'
p140
tp141
Rp142
ssg24
I63696
sg25
I68312
sssI14
(dp143
g4
(dp144
g6
I14
sg7
(dp145
g9
g10
(g14
S'\x00\x00\x00@\t\xb4\xf8?'
p146
tp147
Rp148
sg20
g10
(g14
S'\x00\x00\x00\xa0\xb1\x1f\xdd?'
p149
tp150
Rp151
ssg24
I63696
sg25
I68312
sssI15
(dp152
g4
(dp153
g6
I15
sg7
(dp154
g9
g10
(g14
S'\x00\x00\x00`\xa9\x1c\xf9?'
p155
tp156
Rp157
sg20
g10
(g14
S'\x00\x00\x00\x80\xcc2\xd3?'
p158
tp159
Rp160
ssg24
I65761
sg25
I68312
sssI16
(dp161
g4
(dp162
g6
I16
sg7
(dp163
g9
g10
(g14
S'\x00\x00\x00\x00\xc2j\xf9?'
p164
tp165
Rp166
sg20
g10
(g14
S'\x00\x00\x00\xa0\xfd\xbb\xd3?'
p167
tp168
Rp169
ssg24
I65761
sg25
I68312
sssI17
(dp170
g4
(dp171
g6
I17
sg7
(dp172
g9
g10
(g14
S'\x00\x00\x00\xc0\xc8\xb7\xf9?'
p173
tp174
Rp175
sg20
g10
(g14
S'\x00\x00\x00\xe0\xa2\x80\xcc?'
p176
tp177
Rp178
ssg24
I65761
sg25
I68312
sssI18
(dp179
g4
(dp180
g6
I18
sg7
(dp181
g9
g10
(g14
S'\x00\x00\x00\xc0\xcf\n\xfb?'
p182
tp183
Rp184
sg20
g10
(g14
S'\x00\x00\x00 \xb0\x84\xe1?'
p185
tp186
Rp187
ssg24
I65761
sg25
I68312
sssI19
(dp188
g4
(dp189
g6
I19
sg7
(dp190
g9
g10
(g14
S'\x00\x00\x00\xa0\xd7\xa8\xf1?'
p191
tp192
Rp193
sg20
g10
(g14
S'\x00\x00\x00\xa0\x9d\xb6\xdc?'
p194
tp195
Rp196
ssg24
I66577
sg25
I68312
sssI20
(dp197
g4
(dp198
g6
I20
sg7
(dp199
g9
g10
(g14
S'\x00\x00\x00\xa0\xbd:\xef?'
p200
tp201
Rp202
sg20
g10
(g14
S'\x00\x00\x00\x00\x842\xd5?'
p203
tp204
Rp205
ssg24
I66577
sg25
I68312
sssI21
(dp206
g4
(dp207
g6
I21
sg7
(dp208
g9
g10
(g14
S'\x00\x00\x00\x80\xe1\xf5\xf1?'
p209
tp210
Rp211
sg20
g10
(g14
S'\x00\x00\x00\xa0_?\xcc?'
p212
tp213
Rp214
ssg24
I66577
sg25
I68312
sssI22
(dp215
g4
(dp216
g6
I22
sg7
(dp217
g9
g10
(g14
S'\x00\x00\x00\x80\x1fU\xf2?'
p218
tp219
Rp220
sg20
g10
(g14
S'\x00\x00\x00\xc0\x0c\x9c\xd6?'
p221
tp222
Rp223
ssg24
I66577
sg25
I68312
sssI23
(dp224
g4
(dp225
g6
I23
sg7
(dp226
g9
g10
(g14
S'\x00\x00\x00\xa0_\xfa\xf1?'
p227
tp228
Rp229
sg20
g10
(g14
S'\x00\x00\x00`\xb0\x7f\xe3?'
p230
tp231
Rp232
ssg24
I66577
sg25
I68312
sssI24
(dp233
g4
(dp234
g6
I24
sg7
(dp235
g9
g10
(g14
S'\x00\x00\x00@_Y\xf2?'
p236
tp237
Rp238
sg20
g10
(g14
S'\x00\x00\x00\xe0\x1cy\xcd?'
p239
tp240
Rp241
ssg24
I66577
sg25
I68312
sssI25
(dp242
g4
(dp243
g6
I25
sg7
(dp244
g9
g10
(g14
S'\x00\x00\x00\x80\xb1x\xe9?'
p245
tp246
Rp247
sg20
g10
(g14
S'\x00\x00\x00\x80\xf7\xd1\xd9?'
p248
tp249
Rp250
ssg24
I66707
sg25
I68312
sssI26
(dp251
g4
(dp252
g6
I26
sg7
(dp253
g9
g10
(g14
S'\x00\x00\x00 \x99(\xea?'
p254
tp255
Rp256
sg20
g10
(g14
S'\x00\x00\x00\x00r\xee\xd1?'
p257
tp258
Rp259
ssg24
I66707
sg25
I68312
sssI27
(dp260
g4
(dp261
g6
I27
sg7
(dp262
g9
g10
(g14
S'\x00\x00\x00\xe0QX\xe8?'
p263
tp264
Rp265
sg20
g10
(g14
S'\x00\x00\x00 \x122\xc4?'
p266
tp267
Rp268
ssg24
I66707
sg25
I68312
sssI28
(dp269
g4
(dp270
g6
I28
sg7
(dp271
g9
g10
(g14
S'\x00\x00\x00\x80\x00\x87\xe7?'
p272
tp273
Rp274
sg20
g10
(g14
S'\x00\x00\x00\xe0\x9f?\xd2?'
p275
tp276
Rp277
ssg24
I66707
sg25
I68312
sssI29
(dp278
g4
(dp279
g6
I29
sg7
(dp280
g9
g10
(g14
S'\x00\x00\x00@\xcb\x01\xec?'
p281
tp282
Rp283
sg20
g10
(g14
S'\x00\x00\x00\xc0\xe83\xd7?'
p284
tp285
Rp286
ssg24
I67067
sg25
I68312
sssI30
(dp287
g4
(dp288
g6
I30
sg7
(dp289
g9
g10
(g14
S'\x00\x00\x00`\xe8\x03\xe9?'
p290
tp291
Rp292
sg20
g10
(g14
S'\x00\x00\x00\x00\xe3\xd1\xe8?'
p293
tp294
Rp295
ssg24
I67067
sg25
I68312
sssI31
(dp296
g4
(dp297
g6
I31
sg7
(dp298
g9
g10
(g14
S'\x00\x00\x00\x80O\xb2\xeb?'
p299
tp300
Rp301
sg20
g10
(g14
S'\x00\x00\x00\x80+\xa6\xe4?'
p302
tp303
Rp304
ssg24
I67067
sg25
I68312
sssI32
(dp305
g4
(dp306
g6
I32
sg7
(dp307
g9
g10
(g14
S'\x00\x00\x00 \xdf\xaf\xde?'
p308
tp309
Rp310
sg20
g10
(g14
S'\x00\x00\x00\x00\x0bB\xf4?'
p311
tp312
Rp313
ssg24
I67067
sg25
I68312
sssI33
(dp314
g4
(dp315
g6
I33
sg7
(dp316
g9
g10
(g14
S'\x00\x00\x00\xa0\xb6\xac\xf3?'
p317
tp318
Rp319
sg20
g10
(g14
S'\x00\x00\x00\x80\x86v\xe3?'
p320
tp321
Rp322
ssg24
I67067
sg25
I68312
sssI34
(dp323
g4
(dp324
g6
I34
sg7
(dp325
g9
g10
(g14
S'\x00\x00\x00\x00W\n\xde?'
p326
tp327
Rp328
sg20
g10
(g14
S'\x00\x00\x00\xa0\x14\xa4\xdc?'
p329
tp330
Rp331
ssg24
I67067
sg25
I68312
sssI35
(dp332
g4
(dp333
g6
I35
sg7
(dp334
g9
g10
(g14
S'\x00\x00\x00 @,\xde?'
p335
tp336
Rp337
sg20
g10
(g14
S'\x00\x00\x00\xa0IR\xe0?'
p338
tp339
Rp340
ssg24
I67067
sg25
I68312
sssI36
(dp341
g4
(dp342
g6
I36
sg7
(dp343
g9
g10
(g14
S'\x00\x00\x00\xa0=\x93\xec?'
p344
tp345
Rp346
sg20
g10
(g14
S'\x00\x00\x00\xa09\xc0\xe5?'
p347
tp348
Rp349
ssg24
I67067
sg25
I68312
sssI37
(dp350
g4
(dp351
g6
I37
sg7
(dp352
g9
g10
(g14
S'\x00\x00\x00\x00H\xc8\xf6?'
p353
tp354
Rp355
sg20
g10
(g14
S'\x00\x00\x00`\x19\x13\xe7?'
p356
tp357
Rp358
ssg24
I67067
sg25
I68312
sssI38
(dp359
g4
(dp360
g6
I38
sg7
(dp361
g9
g10
(g14
S'\x00\x00\x00@$\x01\xff?'
p362
tp363
Rp364
sg20
g10
(g14
S'\x00\x00\x00\xa0@4\xea?'
p365
tp366
Rp367
ssg24
I67067
sg25
I68312
sssI39
(dp368
g4
(dp369
g6
I39
sg7
(dp370
g9
g10
(g14
S'\x00\x00\x00 \x13+\xf9?'
p371
tp372
Rp373
sg20
g10
(g14
S'\x00\x00\x00\x80\x1el\xf4?'
p374
tp375
Rp376
ssg24
I67067
sg25
I68312
sssI40
(dp377
g4
(dp378
g6
I40
sg7
(dp379
g9
g10
(g14
S'\x00\x00\x00\xa0\x8e%\xf9?'
p380
tp381
Rp382
sg20
g10
(g14
S'\x00\x00\x00\xc01\x95\xe7?'
p383
tp384
Rp385
ssg24
I67067
sg25
I68312
sssI41
(dp386
g4
(dp387
g6
I41
sg7
(dp388
g9
g10
(g14
S'\x00\x00\x00\xa0\x1aj\xfa?'
p389
tp390
Rp391
sg20
g10
(g14
S'\x00\x00\x00 D\xbf\xf0?'
p392
tp393
Rp394
ssg24
I67067
sg25
I68312
sssI42
(dp395
g4
(dp396
g6
I42
sg7
(dp397
g9
g10
(g14
S'\x00\x00\x00@\xf9\x97\xe1?'
p398
tp399
Rp400
sg20
g10
(g14
S'\x00\x00\x00\xa0\x92_\xce?'
p401
tp402
Rp403
ssg24
I67108
sg25
I68312
sssI43
(dp404
g4
(dp405
g6
I43
sg7
(dp406
g9
g10
(g14
S'\x00\x00\x00\xe0V\xa9\xe1?'
p407
tp408
Rp409
sg20
g10
(g14
S'\x00\x00\x00\xe0\x98\xd6\xe1?'
p410
tp411
Rp412
ssg24
I67108
sg25
I68312
sssI44
(dp413
g4
(dp414
g6
I44
sg7
(dp415
g9
g10
(g14
S'\x00\x00\x00@h\xac\xe1?'
p416
tp417
Rp418
sg20
g10
(g14
S'\x00\x00\x00\x00\xdb\xa9\xc3?'
p419
tp420
Rp421
ssg24
I67108
sg25
I68312
sssI45
(dp422
g4
(dp423
g6
I45
sg7
(dp424
g9
g10
(g14
S'\x00\x00\x00\x80P\xc8\xde?'
p425
tp426
Rp427
sg20
g10
(g14
S'\x00\x00\x00\xe0q\xe5\xdd?'
p428
tp429
Rp430
ssg24
I67108
sg25
I68312
sssI46
(dp431
g4
(dp432
g6
I46
sg7
(dp433
g9
g10
(g14
S'\x00\x00\x00\xe0d\x15\xf2?'
p434
tp435
Rp436
sg20
g10
(g14
S'\x00\x00\x00\xe0\x98\xd2\xd4?'
p437
tp438
Rp439
ssg24
I68192
sg25
I68312
sssI47
(dp440
g4
(dp441
g6
I47
sg7
(dp442
g9
g10
(g14
S'\x00\x00\x00@3l\xf2?'
p443
tp444
Rp445
sg20
g10
(g14
S'\x00\x00\x00\x80$\xc4\xd4?'
p446
tp447
Rp448
ssg24
I68192
sg25
I68312
sssI48
(dp449
g4
(dp450
g6
I48
sg7
(dp451
g9
g10
(g14
S'\x00\x00\x00\x80\x11\xbf\xf2?'
p452
tp453
Rp454
sg20
g10
(g14
S'\x00\x00\x00`\x81u\xe5?'
p455
tp456
Rp457
ssg24
I68192
sg25
I68312
sssI49
(dp458
g4
(dp459
g6
I49
sg7
(dp460
g9
g10
(g14
S'\x00\x00\x00\x00\xdf\x8c\xf7?'
p461
tp462
Rp463
sg20
g10
(g14
S'\x00\x00\x00\x00\xef\xef\xf4?'
p464
tp465
Rp466
ssg24
I68399
sg25
I68312
sssI50
(dp467
g4
(dp468
g6
I50
sg7
(dp469
g9
g10
(g14
S'\x00\x00\x00\x80\n_\xf8?'
p470
tp471
Rp472
sg20
g10
(g14
S'\x00\x00\x00 O\r\xf1?'
p473
tp474
Rp475
ssg24
I68399
sg25
I68312
sssI51
(dp476
g4
(dp477
g6
I51
sg7
(dp478
g9
g10
(g14
S'\x00\x00\x00@\xeb\xb8\xf8?'
p479
tp480
Rp481
sg20
g10
(g14
S'\x00\x00\x00\xc0MB\xf0?'
p482
tp483
Rp484
ssg24
I68399
sg25
I68312
sssI52
(dp485
g4
(dp486
g6
I52
sg7
(dp487
g9
g10
(g14
S'\x00\x00\x00\xe0\x19w\xff?'
p488
tp489
Rp490
sg20
g10
(g14
S'\x00\x00\x00\xa0oG\xf1?'
p491
tp492
Rp493
ssg24
I68399
sg25
I68312
sssI53
(dp494
g4
(dp495
g6
I53
sg7
(dp496
g9
g10
(g14
S'\x00\x00\x00\xa0\xc7{\xff?'
p497
tp498
Rp499
sg20
g10
(g14
S'\x00\x00\x00`OP\xe3?'
p500
tp501
Rp502
ssg24
I68399
sg25
I68312
sssI54
(dp503
g4
(dp504
g6
I54
sg7
(dp505
g9
g10
(g14
S'\x00\x00\x00`C{\xff?'
p506
tp507
Rp508
sg20
g10
(g14
S'\x00\x00\x00\x00wn\xef?'
p509
tp510
Rp511
ssg24
I68399
sg25
I68312
sssI55
(dp512
g4
(dp513
g6
I55
sg7
(dp514
g9
g10
(g14
S'\x00\x00\x00\x00\x054\xf5?'
p515
tp516
Rp517
sg20
g10
(g14
S'\x00\x00\x00\x00\xdc\xd7\xdc?'
p518
tp519
Rp520
ssg24
I68482
sg25
I68312
sssI56
(dp521
g4
(dp522
g6
I56
sg7
(dp523
g9
g10
(g14
S'\x00\x00\x00\xc0\xbc\x7f\xf5?'
p524
tp525
Rp526
sg20
g10
(g14
S'\x00\x00\x00\xa0x\xa1\xdd?'
p527
tp528
Rp529
ssg24
I68482
sg25
I68312
sssI57
(dp530
g4
(dp531
g6
I57
sg7
(dp532
g9
g10
(g14
S'\x00\x00\x00\xa0\xcf\xcf\xf5?'
p533
tp534
Rp535
sg20
g10
(g14
S'\x00\x00\x00@m\x02\xe2?'
p536
tp537
Rp538
ssg24
I68482
sg25
I68312
sssI58
(dp539
g4
(dp540
g6
I58
sg7
(dp541
g9
g10
(g14
S"\x00\x00\x00`$'\xf6?"
p542
tp543
Rp544
sg20
g10
(g14
S'\x00\x00\x00`V%\xd2?'
p545
tp546
Rp547
ssg24
I68482
sg25
I68312
sssI59
(dp548
g4
(dp549
g6
I59
sg7
(dp550
g9
g10
(g14
S'\x00\x00\x00\xc0b\xbd\xf6?'
p551
tp552
Rp553
sg20
g10
(g14
S'\x00\x00\x00@\x1c\xfe\xd2?'
p554
tp555
Rp556
ssg24
I68482
sg25
I68312
sssI60
(dp557
g4
(dp558
g6
I60
sg7
(dp559
g9
g10
(g14
S'\x00\x00\x00`\xfc\xb0\xec?'
p560
tp561
Rp562
sg20
g10
(g14
S'\x00\x00\x00\x80\xe6(\xe2?'
p563
tp564
Rp565
ssg24
I68680
sg25
I68312
sssI61
(dp566
g4
(dp567
g6
I61
sg7
(dp568
g9
g10
(g14
S'\x00\x00\x00 K\xef\xec?'
p569
tp570
Rp571
sg20
g10
(g14
S'\x00\x00\x00\xa0Lt\xc8?'
p572
tp573
Rp574
ssg24
I68680
sg25
I68312
sssI62
(dp575
g4
(dp576
g6
I62
sg7
(dp577
g9
g10
(g14
S'\x00\x00\x00 \x07%\xf3?'
p578
tp579
Rp580
sg20
g10
(g14
S'\x00\x00\x00\xe0\xb7O\xca?'
p581
tp582
Rp583
ssg24
I68680
sg25
I68312
sssI63
(dp584
g4
(dp585
g6
I63
sg7
(dp586
g9
g10
(g14
S'\x00\x00\x00\x80\x86\x7f\xec?'
p587
tp588
Rp589
sg20
g10
(g14
S'\x00\x00\x00\x80\xd8F\xdd?'
p590
tp591
Rp592
ssg24
I68680
sg25
I68312
sssI64
(dp593
g4
(dp594
g6
I64
sg7
(dp595
g9
g10
(g14
S'\x00\x00\x00\x00c|\xe7?'
p596
tp597
Rp598
sg20
g10
(g14
S'\x00\x00\x00@\x9d\r\xe0?'
p599
tp600
Rp601
ssg24
I68761
sg25
I68312
sssI65
(dp602
g4
(dp603
g6
I65
sg7
(dp604
g9
g10
(g14
S'\x00\x00\x00@s,\xe8?'
p605
tp606
Rp607
sg20
g10
(g14
S'\x00\x00\x00\x80\x87\x12\xe3?'
p608
tp609
Rp610
ssg24
I68761
sg25
I68312
sssI66
(dp611
g4
(dp612
g6
I66
sg7
(dp613
g9
g10
(g14
S'\x00\x00\x00@4\xd1\xe8?'
p614
tp615
Rp616
sg20
g10
(g14
S'\x00\x00\x00\x80`\xde\xd8?'
p617
tp618
Rp619
ssg24
I68761
sg25
I68312
sssI67
(dp620
g4
(dp621
g6
I67
sg7
(dp622
g9
g10
(g14
S'\x00\x00\x00 \xb5&\xea?'
p623
tp624
Rp625
sg20
g10
(g14
S'\x00\x00\x00\xc0d\xb7\xd5?'
p626
tp627
Rp628
ssg24
I68761
sg25
I68312
sssI68
(dp629
g4
(dp630
g6
I68
sg7
(dp631
g9
g10
(g14
S'\x00\x00\x00\x00\xad\xd3\xea?'
p632
tp633
Rp634
sg20
g10
(g14
S'\x00\x00\x00\x80L\xc3\xda?'
p635
tp636
Rp637
ssg24
I68761
sg25
I68312
sssI69
(dp638
g4
(dp639
g6
I69
sg7
(dp640
g9
g10
(g14
S'\x00\x00\x00`\x90\xfe\xd4?'
p641
tp642
Rp643
sg20
g10
(g14
S'\x00\x00\x00\xe0\xa1\x9d\xda?'
p644
tp645
Rp646
ssg24
I68848
sg25
I68312
sssI70
(dp647
g4
(dp648
g6
I70
sg7
(dp649
g9
g10
(g14
S'\x00\x00\x00 \xf6\x9e\xe9?'
p650
tp651
Rp652
sg20
g10
(g14
S'\x00\x00\x00\xc0\xdd\x85\xe0?'
p653
tp654
Rp655
ssg24
I68848
sg25
I68312
sssI71
(dp656
g4
(dp657
g6
I71
sg7
(dp658
g9
g10
(g14
S'\x00\x00\x00\xe0\n\xbb\xec?'
p659
tp660
Rp661
sg20
g10
(g14
S'\x00\x00\x00 \xd66\xdb?'
p662
tp663
Rp664
ssg24
I68848
sg25
I68312
sssI72
(dp665
g4
(dp666
g6
I72
sg7
(dp667
g9
g10
(g14
S'\x00\x00\x00\x80p\x84\xe2?'
p668
tp669
Rp670
sg20
g10
(g14
S'\x00\x00\x00\x00O\x92\xe4?'
p671
tp672
Rp673
ssg24
I68848
sg25
I68312
sssI73
(dp674
g4
(dp675
g6
I73
sg7
(dp676
g9
g10
(g14
S'\x00\x00\x00 -\x05\xf0?'
p677
tp678
Rp679
sg20
g10
(g14
S'\x00\x00\x00`J\x8a\xe1?'
p680
tp681
Rp682
ssg24
I69444
sg25
I68312
sssI74
(dp683
g4
(dp684
g6
I74
sg7
(dp685
g9
g10
(g14
S'\x00\x00\x00 \xdc\x07\xf0?'
p686
tp687
Rp688
sg20
g10
(g14
S'\x00\x00\x00\x805\x12\xe3?'
p689
tp690
Rp691
ssg24
I69444
sg25
I68312
sssI75
(dp692
g4
(dp693
g6
I75
sg7
(dp694
g9
g10
(g14
S'\x00\x00\x00@\x9d\x95\xf5?'
p695
tp696
Rp697
sg20
g10
(g14
S'\x00\x00\x00@\xe99\xd9?'
p698
tp699
Rp700
ssg24
I69444
sg25
I68312
sssI76
(dp701
g4
(dp702
g6
I76
sg7
(dp703
g9
g10
(g14
S'\x00\x00\x00`v5\xf0?'
p704
tp705
Rp706
sg20
g10
(g14
S'\x00\x00\x00\xe0V\x97\xca?'
p707
tp708
Rp709
ssg24
I69444
sg25
I68312
sssI77
(dp710
g4
(dp711
g6
I77
sg7
(dp712
g9
g10
(g14
S'\x00\x00\x00 \x89\x13\xf1?'
p713
tp714
Rp715
sg20
g10
(g14
S'\x00\x00\x00`f\xbc\xe1?'
p716
tp717
Rp718
ssg24
I70186
sg25
I68312
sssI78
(dp719
g4
(dp720
g6
I78
sg7
(dp721
g9
g10
(g14
S'\x00\x00\x00\xe0\xfba\xf4?'
p722
tp723
Rp724
sg20
g10
(g14
S'\x00\x00\x00`\x02\xc9\xdc?'
p725
tp726
Rp727
ssg24
I70186
sg25
I68312
sssI79
(dp728
g4
(dp729
g6
I79
sg7
(dp730
g9
g10
(g14
S'\x00\x00\x00\xa0W\xaf\xf4?'
p731
tp732
Rp733
sg20
g10
(g14
S'\x00\x00\x00\x80zM\xe5?'
p734
tp735
Rp736
ssg24
I70186
sg25
I68312
sssI80
(dp737
g4
(dp738
g6
I80
sg7
(dp739
g9
g10
(g14
S'\x00\x00\x00\xe0\xe9\xb2\xf3?'
p740
tp741
Rp742
sg20
g10
(g14
S'\x00\x00\x00\xe0S\x95\xd0?'
p743
tp744
Rp745
ssg24
I70186
sg25
I68312
sssI81
(dp746
g4
(dp747
g6
I81
sg7
(dp748
g9
g10
(g14
S'\x00\x00\x00\x00\xc7\n\xf1?'
p749
tp750
Rp751
sg20
g10
(g14
S'\x00\x00\x00\xe0X\x9b\xe3?'
p752
tp753
Rp754
ssg24
I70186
sg25
I68312
sssI82
(dp755
g4
(dp756
g6
I82
sg7
(dp757
g9
g10
(g14
S'\x00\x00\x00\xc0\xcd\x15\xf1?'
p758
tp759
Rp760
sg20
g10
(g14
S'\x00\x00\x00\xa0\xc4\x01\xe3?'
p761
tp762
Rp763
ssg24
I70207
sg25
I68312
sssI83
(dp764
g4
(dp765
g6
I83
sg7
(dp766
g9
g10
(g14
S'\x00\x00\x00@\x1c.\xf1?'
p767
tp768
Rp769
sg20
g10
(g14
S'\x00\x00\x00\xa0\xb3\x9b\xd5?'
p770
tp771
Rp772
ssg24
I70207
sg25
I68312
sssI84
(dp773
g4
(dp774
g6
I84
sg7
(dp775
g9
g10
(g14
S'\x00\x00\x00\x00|\x11\xf3?'
p776
tp777
Rp778
sg20
g10
(g14
S'\x00\x00\x00 "\x0e\xde?'
p779
tp780
Rp781
ssg24
I70207
sg25
I68312
sssI85
(dp782
g4
(dp783
g6
I85
sg7
(dp784
g9
g10
(g14
S'\x00\x00\x00` d\xf3?'
p785
tp786
Rp787
sg20
g10
(g14
S'\x00\x00\x00\xe0]\xc4\xd0?'
p788
tp789
Rp790
ssg24
I70207
sg25
I68312
sssI86
(dp791
g4
(dp792
g6
I86
sg7
(dp793
g9
g10
(g14
S'\x00\x00\x00\xe0g\xb9\xf3?'
p794
tp795
Rp796
sg20
g10
(g14
S'\x00\x00\x00`\xb3}\xdb?'
p797
tp798
Rp799
ssg24
I70207
sg25
I68312
sssI87
(dp800
g4
(dp801
g6
I87
sg7
(dp802
g9
g10
(g14
S'\x00\x00\x00 \xc1(\xf1?'
p803
tp804
Rp805
sg20
g10
(g14
S'\x00\x00\x00\xe0\x9b\xd7\xe3?'
p806
tp807
Rp808
ssg24
I70207
sg25
I68312
sssI88
(dp809
g4
(dp810
g6
I88
sg7
(dp811
g9
g10
(g14
S'\x00\x00\x00\xa0\xbfi\xf9?'
p812
tp813
Rp814
sg20
g10
(g14
S'\x00\x00\x00`P-\xd3?'
p815
tp816
Rp817
ssg24
I70393
sg25
I68312
sssI89
(dp818
g4
(dp819
g6
I89
sg7
(dp820
g9
g10
(g14
S'\x00\x00\x00\xe0m5\xf8?'
p821
tp822
Rp823
sg20
g10
(g14
S'\x00\x00\x00\xe0\xa9\xdb\xf2?'
p824
tp825
Rp826
ssg24
I70393
sg25
I68312
sssI90
(dp827
g4
(dp828
g6
I90
sg7
(dp829
g9
g10
(g14
S'\x00\x00\x00\xc0\xc6\xae\xf4?'
p830
tp831
Rp832
sg20
g10
(g14
S'\x00\x00\x00\xc0\xf1\xd0\xe9?'
p833
tp834
Rp835
ssg24
I70393
sg25
I68312
sssI91
(dp836
g4
(dp837
g6
I91
sg7
(dp838
g9
g10
(g14
S'\x00\x00\x00@\x12\x1d\xed?'
p839
tp840
Rp841
sg20
g10
(g14
S'\x00\x00\x00 \x8a8\xe4?'
p842
tp843
Rp844
ssg24
I70393
sg25
I68312
sssI92
(dp845
g4
(dp846
g6
I92
sg7
(dp847
g9
g10
(g14
S'\x00\x00\x00\xa0\xcd\xea\xf1?'
p848
tp849
Rp850
sg20
g10
(g14
S'\x00\x00\x00 \xf5\xb0\xf1?'
p851
tp852
Rp853
ssg24
I70393
sg25
I68312
sssI93
(dp854
g4
(dp855
g6
I93
sg7
(dp856
g9
g10
(g14
S'\x00\x00\x00 s\xb8\xed?'
p857
tp858
Rp859
sg20
g10
(g14
S'\x00\x00\x00\xc0\x0b\x93\xe2?'
p860
tp861
Rp862
ssg24
I70393
sg25
I68312
sssI94
(dp863
g4
(dp864
g6
I94
sg7
(dp865
g9
g10
(g14
S'\x00\x00\x00\xa0\x01[\xf0?'
p866
tp867
Rp868
sg20
g10
(g14
S'\x00\x00\x00\xa0\xa2T\xf0?'
p869
tp870
Rp871
ssg24
I70393
sg25
I68312
sssI95
(dp872
g4
(dp873
g6
I95
sg7
(dp874
g9
g10
(g14
S'\x00\x00\x00 \x01#\x02@'
p875
tp876
Rp877
sg20
g10
(g14
S'\x00\x00\x00 4J\xd2?'
p878
tp879
Rp880
ssg24
I70597
sg25
I68312
sssI96
(dp881
g4
(dp882
g6
I96
sg7
(dp883
g9
g10
(g14
S"\x00\x00\x00\x80\x05'\x02@"
p884
tp885
Rp886
sg20
g10
(g14
S'\x00\x00\x00\x80\x96\xf2\xcf?'
p887
tp888
Rp889
ssg24
I70597
sg25
I68312
sssI97
(dp890
g4
(dp891
g6
I97
sg7
(dp892
g9
g10
(g14
S'\x00\x00\x00 \xf6%\x02@'
p893
tp894
Rp895
sg20
g10
(g14
S'\x00\x00\x00\x80\xdb\t\xe5?'
p896
tp897
Rp898
ssg24
I70597
sg25
I68312
sssI98
(dp899
g4
(dp900
g6
I98
sg7
(dp901
g9
g10
(g14
S'\x00\x00\x00 \xa2\xd3\xf8?'
p902
tp903
Rp904
sg20
g10
(g14
S'\x00\x00\x00\xc0I\xc5\xe3?'
p905
tp906
Rp907
ssg24
I70733
sg25
I68312
sssI99
(dp908
g4
(dp909
g6
I99
sg7
(dp910
g9
g10
(g14
S'\x00\x00\x00\x00\xe2\xca\xf2?'
p911
tp912
Rp913
sg20
g10
(g14
S'\x00\x00\x00\x80\xf6\x11\xd8?'
p914
tp915
Rp916
ssg24
I70733
sg25
I68312
sssI100
(dp917
g4
(dp918
g6
I100
sg7
(dp919
g9
g10
(g14
S'\x00\x00\x00@\xd2$\xf3?'
p920
tp921
Rp922
sg20
g10
(g14
S'\x00\x00\x00 8\x83\xce?'
p923
tp924
Rp925
ssg24
I70733
sg25
I68312
sssI101
(dp926
g4
(dp927
g6
I101
sg7
(dp928
g9
g10
(g14
S'\x00\x00\x00\xe0\x10\x7f\xfa?'
p929
tp930
Rp931
sg20
g10
(g14
S'\x00\x00\x00\x80(\x12\xe5?'
p932
tp933
Rp934
ssg24
I70890
sg25
I68312
sssI102
(dp935
g4
(dp936
g6
I102
sg7
(dp937
g9
g10
(g14
S'\x00\x00\x00 \xc4\xd1\xfa?'
p938
tp939
Rp940
sg20
g10
(g14
S'\x00\x00\x00\xe0e\x02\xd5?'
p941
tp942
Rp943
ssg24
I70890
sg25
I68312
sssI103
(dp944
g4
(dp945
g6
I103
sg7
(dp946
g9
g10
(g14
S'\x00\x00\x00\xe0"+\xfb?'
p947
tp948
Rp949
sg20
g10
(g14
S'\x00\x00\x00\x80TT\xdc?'
p950
tp951
Rp952
ssg24
I70890
sg25
I68312
sssI104
(dp953
g4
(dp954
g6
I104
sg7
(dp955
g9
g10
(g14
S'\x00\x00\x00@6\x19\xef?'
p956
tp957
Rp958
sg20
g10
(g14
S'\x00\x00\x00\xa0\x9a\x15\xea?'
p959
tp960
Rp961
ssg24
I70923
sg25
I68312
sssI105
(dp962
g4
(dp963
g6
I105
sg7
(dp964
g9
g10
(g14
S'\x00\x00\x00\xe0z.\xe9?'
p965
tp966
Rp967
sg20
g10
(g14
S'\x00\x00\x00@\x92b\xee?'
p968
tp969
Rp970
ssg24
I70923
sg25
I68312
sssI106
(dp971
g4
(dp972
g6
I106
sg7
(dp973
g9
g10
(g14
S'\x00\x00\x00`[\x1d\xf3?'
p974
tp975
Rp976
sg20
g10
(g14
S'\x00\x00\x00\x00\x14@\xf3?'
p977
tp978
Rp979
ssg24
I70923
sg25
I68312
sssI107
(dp980
g4
(dp981
g6
I107
sg7
(dp982
g9
g10
(g14
S'\x00\x00\x00 \xa3\x93\xf1?'
p983
tp984
Rp985
sg20
g10
(g14
S'\x00\x00\x00@\x8d\xd1\xe3?'
p986
tp987
Rp988
ssg24
I70923
sg25
I68312
sssI108
(dp989
g4
(dp990
g6
I108
sg7
(dp991
g9
g10
(g14
S'\x00\x00\x00\xc0\xa0<\xf0?'
p992
tp993
Rp994
sg20
g10
(g14
S'\x00\x00\x00@b\x8a\xec?'
p995
tp996
Rp997
ssg24
I70923
sg25
I68312
sssI109
(dp998
g4
(dp999
g6
I109
sg7
(dp1000
g9
g10
(g14
S'\x00\x00\x00\xe0\x7f\x84\xf0?'
p1001
tp1002
Rp1003
sg20
g10
(g14
S'\x00\x00\x00\xa0\x90\x19\xec?'
p1004
tp1005
Rp1006
ssg24
I70923
sg25
I68312
sssI110
(dp1007
g4
(dp1008
g6
I110
sg7
(dp1009
g9
g10
(g14
S'\x00\x00\x00 ^"\xf0?'
p1010
tp1011
Rp1012
sg20
g10
(g14
S'\x00\x00\x00 \xa5d\xf4?'
p1013
tp1014
Rp1015
ssg24
I70923
sg25
I68312
sssI111
(dp1016
g4
(dp1017
g6
I111
sg7
(dp1018
g9
g10
(g14
S'\x00\x00\x00\xc0\x86e\xf1?'
p1019
tp1020
Rp1021
sg20
g10
(g14
S'\x00\x00\x00\x00\x1f\xfa\xc8?'
p1022
tp1023
Rp1024
ssg24
I71002
sg25
I68312
sssI112
(dp1025
g4
(dp1026
g6
I112
sg7
(dp1027
g9
g10
(g14
S'\x00\x00\x00\x00\\<\xf3?'
p1028
tp1029
Rp1030
sg20
g10
(g14
S'\x00\x00\x00\xc09>\xe6?'
p1031
tp1032
Rp1033
ssg24
I71002
sg25
I68312
sssI113
(dp1034
g4
(dp1035
g6
I113
sg7
(dp1036
g9
g10
(g14
S'\x00\x00\x00`\r^\xec?'
p1037
tp1038
Rp1039
sg20
g10
(g14
S'\x00\x00\x00`\xa7\xd5\xf4?'
p1040
tp1041
Rp1042
ssg24
I71210
sg25
I68312
sssI114
(dp1043
g4
(dp1044
g6
I114
sg7
(dp1045
g9
g10
(g14
S'\x00\x00\x00 q\x11\xe8?'
p1046
tp1047
Rp1048
sg20
g10
(g14
S'\x00\x00\x00 \xd8\x8e\xf2?'
p1049
tp1050
Rp1051
ssg24
I71210
sg25
I68312
sssI115
(dp1052
g4
(dp1053
g6
I115
sg7
(dp1054
g9
g10
(g14
S'\x00\x00\x00 O\x01\xe9?'
p1055
tp1056
Rp1057
sg20
g10
(g14
S'\x00\x00\x00\x00\x0f\xa9\xd6?'
p1058
tp1059
Rp1060
ssg24
I71210
sg25
I68312
sssI116
(dp1061
g4
(dp1062
g6
I116
sg7
(dp1063
g9
g10
(g14
S'\x00\x00\x00@!\xd2\xf1?'
p1064
tp1065
Rp1066
sg20
g10
(g14
S'\x00\x00\x00\xc0\xbfE\xf1?'
p1067
tp1068
Rp1069
ssg24
I71210
sg25
I68312
sssI117
(dp1070
g4
(dp1071
g6
I117
sg7
(dp1072
g9
g10
(g14
S'\x00\x00\x00 w\x81\xed?'
p1073
tp1074
Rp1075
sg20
g10
(g14
S'\x00\x00\x00\x00\x81\x85\xec?'
p1076
tp1077
Rp1078
ssg24
I71210
sg25
I68312
sssI118
(dp1079
g4
(dp1080
g6
I118
sg7
(dp1081
g9
g10
(g14
S'\x00\x00\x00`0\x08\xee?'
p1082
tp1083
Rp1084
sg20
g10
(g14
S'\x00\x00\x00\xe0l\xf0\xe8?'
p1085
tp1086
Rp1087
ssg24
I71210
sg25
I68312
sssI119
(dp1088
g4
(dp1089
g6
I119
sg7
(dp1090
g9
g10
(g14
S'\x00\x00\x00\xc0 1\xee?'
p1091
tp1092
Rp1093
sg20
g10
(g14
S'\x00\x00\x00@ZU\xe3?'
p1094
tp1095
Rp1096
ssg24
I71210
sg25
I68312
sssI120
(dp1097
g4
(dp1098
g6
I120
sg7
(dp1099
g9
g10
(g14
S'\x00\x00\x00\x80V,\xee?'
p1100
tp1101
Rp1102
sg20
g10
(g14
S'\x00\x00\x00\x80\x96T\xed?'
p1103
tp1104
Rp1105
ssg24
I71210
sg25
I68312
sssI121
(dp1106
g4
(dp1107
g6
I121
sg7
(dp1108
g9
g10
(g14
S'\x00\x00\x00\x80\x1e\xaf\xfd?'
p1109
tp1110
Rp1111
sg20
g10
(g14
S'\x00\x00\x00 Vm\xe0?'
p1112
tp1113
Rp1114
ssg24
I71447
sg25
I68312
sssI122
(dp1115
g4
(dp1116
g6
I122
sg7
(dp1117
g9
g10
(g14
S'\x00\x00\x00 l2\xff?'
p1118
tp1119
Rp1120
sg20
g10
(g14
S'\x00\x00\x00@*\xd3\xe4?'
p1121
tp1122
Rp1123
ssg24
I71447
sg25
I68312
sssI123
(dp1124
g4
(dp1125
g6
I123
sg7
(dp1126
g9
g10
(g14
S'\x00\x00\x00\x00#N\xff?'
p1127
tp1128
Rp1129
sg20
g10
(g14
S'\x00\x00\x00`G\xc9\xd6?'
p1130
tp1131
Rp1132
ssg24
I71447
sg25
I68312
sssI124
(dp1133
g4
(dp1134
g6
I124
sg7
(dp1135
g9
g10
(g14
S'\x00\x00\x00@s[\xed?'
p1136
tp1137
Rp1138
sg20
g10
(g14
S'\x00\x00\x00\x80\xfe\x10\xf3?'
p1139
tp1140
Rp1141
ssg24
I71534
sg25
I68312
sssI125
(dp1142
g4
(dp1143
g6
I125
sg7
(dp1144
g9
g10
(g14
S'\x00\x00\x00\xc0y%\xf0?'
p1145
tp1146
Rp1147
sg20
g10
(g14
S'\x00\x00\x00@\x9d7\xeb?'
p1148
tp1149
Rp1150
ssg24
I71534
sg25
I68312
sssI126
(dp1151
g4
(dp1152
g6
I126
sg7
(dp1153
g9
g10
(g14
S'\x00\x00\x00\x00\xd0\x84\xeb?'
p1154
tp1155
Rp1156
sg20
g10
(g14
S'\x00\x00\x00\xa0\xa6S\xda?'
p1157
tp1158
Rp1159
ssg24
I71534
sg25
I68312
sssI127
(dp1160
g4
(dp1161
g6
I127
sg7
(dp1162
g9
g10
(g14
S'\x00\x00\x00 \xcbq\xee?'
p1163
tp1164
Rp1165
sg20
g10
(g14
S'\x00\x00\x00`?E\xee?'
p1166
tp1167
Rp1168
ssg24
I71534
sg25
I68312
sssI128
(dp1169
g4
(dp1170
g6
I128
sg7
(dp1171
g9
g10
(g14
S'\x00\x00\x00\xc0\xbe\x97\xeb?'
p1172
tp1173
Rp1174
sg20
g10
(g14
S'\x00\x00\x00\x00\xaej\xf4?'
p1175
tp1176
Rp1177
ssg24
I71534
sg25
I68312
sssI129
(dp1178
g4
(dp1179
g6
I129
sg7
(dp1180
g9
g10
(g14
S'\x00\x00\x00\xe0\xef\x95\xeb?'
p1181
tp1182
Rp1183
sg20
g10
(g14
S'\x00\x00\x00\xc0\xc0\xc1\xf4?'
p1184
tp1185
Rp1186
ssg24
I71534
sg25
I68312
sssI130
(dp1187
g4
(dp1188
g6
I130
sg7
(dp1189
g9
g10
(g14
S'\x00\x00\x00`\xb7N\x08@'
p1190
tp1191
Rp1192
sg20
g10
(g14
S'\x00\x00\x00\xe00\x93\xde?'
p1193
tp1194
Rp1195
ssg24
I71626
sg25
I68312
sssI131
(dp1196
g4
(dp1197
g6
I131
sg7
(dp1198
g9
g10
(g14
S'\x00\x00\x00 \x96s\x08@'
p1199
tp1200
Rp1201
sg20
g10
(g14
S'\x00\x00\x00\xc0\xf4\x03\xd0?'
p1202
tp1203
Rp1204
ssg24
I71626
sg25
I68312
sssI132
(dp1205
g4
(dp1206
g6
I132
sg7
(dp1207
g9
g10
(g14
S'\x00\x00\x00\x80\x9c\x9e\x08@'
p1208
tp1209
Rp1210
sg20
g10
(g14
S'\x00\x00\x00\xa0\xcd$\xe4?'
p1211
tp1212
Rp1213
ssg24
I71626
sg25
I68312
sssI133
(dp1214
g4
(dp1215
g6
I133
sg7
(dp1216
g9
g10
(g14
S"\x00\x00\x00\x80\x10'\xf8?"
p1217
tp1218
Rp1219
sg20
g10
(g14
S'\x00\x00\x00 \xac\x91\xd8?'
p1220
tp1221
Rp1222
ssg24
I71695
sg25
I68312
sssI134
(dp1223
g4
(dp1224
g6
I134
sg7
(dp1225
g9
g10
(g14
S'\x00\x00\x00\xc0Zp\xf8?'
p1226
tp1227
Rp1228
sg20
g10
(g14
S'\x00\x00\x00\xa0\x16\x1d\xc5?'
p1229
tp1230
Rp1231
ssg24
I71695
sg25
I68312
sssI135
(dp1232
g4
(dp1233
g6
I135
sg7
(dp1234
g9
g10
(g14
S'\x00\x00\x00@n\xbd\xf8?'
p1235
tp1236
Rp1237
sg20
g10
(g14
S'\x00\x00\x00\xa0\xfa\xce\xe2?'
p1238
tp1239
Rp1240
ssg24
I71695
sg25
I68312
sssI136
(dp1241
g4
(dp1242
g6
I136
sg7
(dp1243
g9
g10
(g14
S'\x00\x00\x00\xa0\xf8o\x00@'
p1244
tp1245
Rp1246
sg20
g10
(g14
S'\x00\x00\x00\xc0\xf2c\xda?'
p1247
tp1248
Rp1249
ssg24
I71695
sg25
I68312
sssI137
(dp1250
g4
(dp1251
g6
I137
sg7
(dp1252
g9
g10
(g14
S'\x00\x00\x00\x80\x98a\xfe?'
p1253
tp1254
Rp1255
sg20
g10
(g14
S'\x00\x00\x00 \x8f\x01\xc7?'
p1256
tp1257
Rp1258
ssg24
I72237
sg25
I68312
sssI138
(dp1259
g4
(dp1260
g6
I138
sg7
(dp1261
g9
g10
(g14
S'\x00\x00\x00\x00\x94q\xfe?'
p1262
tp1263
Rp1264
sg20
g10
(g14
S'\x00\x00\x00@/B\xda?'
p1265
tp1266
Rp1267
ssg24
I72237
sg25
I68312
sssI139
(dp1268
g4
(dp1269
g6
I139
sg7
(dp1270
g9
g10
(g14
S'\x00\x00\x00\xa08R\x00@'
p1271
tp1272
Rp1273
sg20
g10
(g14
S'\x00\x00\x00\xa0\xf68\xce?'
p1274
tp1275
Rp1276
ssg24
I72237
sg25
I68312
sssI140
(dp1277
g4
(dp1278
g6
I140
sg7
(dp1279
g9
g10
(g14
S'\x00\x00\x00`\xa29\x02@'
p1280
tp1281
Rp1282
sg20
g10
(g14
S'\x00\x00\x00\xc0hQ\xe6?'
p1283
tp1284
Rp1285
ssg24
I72237
sg25
I68312
sssI141
(dp1286
g4
(dp1287
g6
I141
sg7
(dp1288
g9
g10
(g14
S'\x00\x00\x00\xe0\xadq\xfe?'
p1289
tp1290
Rp1291
sg20
g10
(g14
S'\x00\x00\x00 w\xd2\xdf?'
p1292
tp1293
Rp1294
ssg24
I72237
sg25
I68312
sssI142
(dp1295
g4
(dp1296
g6
I142
sg7
(dp1297
g9
g10
(g14
S'\x00\x00\x00\x80\xda\x12\x00@'
p1298
tp1299
Rp1300
sg20
g10
(g14
S'\x00\x00\x00\xe0m\xa1\xe4?'
p1301
tp1302
Rp1303
ssg24
I72237
sg25
I68312
sssI143
(dp1304
g4
(dp1305
g6
I143
sg7
(dp1306
g9
g10
(g14
S'\x00\x00\x00\xa0\xd7=\x00@'
p1307
tp1308
Rp1309
sg20
g10
(g14
S'\x00\x00\x00@\xb5\x0e\xe3?'
p1310
tp1311
Rp1312
ssg24
I72237
sg25
I68312
sssI144
(dp1313
g4
(dp1314
g6
I144
sg7
(dp1315
g9
g10
(g14
S'\x00\x00\x00`\x01\xd5\x01@'
p1316
tp1317
Rp1318
sg20
g10
(g14
S'\x00\x00\x00 w\x1b\xd4?'
p1319
tp1320
Rp1321
ssg24
I72237
sg25
I68312
sssI145
(dp1322
g4
(dp1323
g6
I145
sg7
(dp1324
g9
g10
(g14
S'\x00\x00\x00 R\x1b\xfd?'
p1325
tp1326
Rp1327
sg20
g10
(g14
S'\x00\x00\x00`\x8e0\xd9?'
p1328
tp1329
Rp1330
ssg24
I72536
sg25
I68312
sssI146
(dp1331
g4
(dp1332
g6
I146
sg7
(dp1333
g9
g10
(g14
S'\x00\x00\x00\x00\xb1\x1f\xf7?'
p1334
tp1335
Rp1336
sg20
g10
(g14
S'\x00\x00\x00\x80\x98#\xe0?'
p1337
tp1338
Rp1339
ssg24
I72536
sg25
I68312
sssI147
(dp1340
g4
(dp1341
g6
I147
sg7
(dp1342
g9
g10
(g14
S'\x00\x00\x00\x00Sp\xf9?'
p1343
tp1344
Rp1345
sg20
g10
(g14
S'\x00\x00\x00\xe0\x97k\xe5?'
p1346
tp1347
Rp1348
ssg24
I72536
sg25
I68312
sssI148
(dp1349
g4
(dp1350
g6
I148
sg7
(dp1351
g9
g10
(g14
S'\x00\x00\x00\xa0\x83\xb9\xfb?'
p1352
tp1353
Rp1354
sg20
g10
(g14
S'\x00\x00\x00\xe02b\xe2?'
p1355
tp1356
Rp1357
ssg24
I72549
sg25
I68312
sssI149
(dp1358
g4
(dp1359
g6
I149
sg7
(dp1360
g9
g10
(g14
S'\x00\x00\x00\x80\t\xde\xf2?'
p1361
tp1362
Rp1363
sg20
g10
(g14
S'\x00\x00\x00\xe0\xda\xfc\xd7?'
p1364
tp1365
Rp1366
ssg24
I72549
sg25
I68312
sssI150
(dp1367
g4
(dp1368
g6
I150
sg7
(dp1369
g9
g10
(g14
S'\x00\x00\x00 6@\xf5?'
p1370
tp1371
Rp1372
sg20
g10
(g14
S'\x00\x00\x00\xa0\xdf\x1c\xd8?'
p1373
tp1374
Rp1375
ssg24
I72549
sg25
I68312
sssI151
(dp1376
g4
(dp1377
g6
I151
sg7
(dp1378
g9
g10
(g14
S'\x00\x00\x00@\xb6S\xee?'
p1379
tp1380
Rp1381
sg20
g10
(g14
S'\x00\x00\x00\xe0\xe1\xcb\xd3?'
p1382
tp1383
Rp1384
ssg24
I72549
sg25
I68312
sssI152
(dp1385
g4
(dp1386
g6
I152
sg7
(dp1387
g9
g10
(g14
S'\x00\x00\x00`\xe0Z\xf5?'
p1388
tp1389
Rp1390
sg20
g10
(g14
S'\x00\x00\x00`\xf6\xb7\xe3?'
p1391
tp1392
Rp1393
ssg24
I73263
sg25
I68312
sssI153
(dp1394
g4
(dp1395
g6
I153
sg7
(dp1396
g9
g10
(g14
S'\x00\x00\x00\xc0\x9b\x16\xfe?'
p1397
tp1398
Rp1399
sg20
g10
(g14
S'\x00\x00\x00\xe09\x10\xe5?'
p1400
tp1401
Rp1402
ssg24
I73263
sg25
I68312
sssI154
(dp1403
g4
(dp1404
g6
I154
sg7
(dp1405
g9
g10
(g14
S'\x00\x00\x00\x80\x9e\x18\xff?'
p1406
tp1407
Rp1408
sg20
g10
(g14
S'\x00\x00\x00@\xb0\x89\xe2?'
p1409
tp1410
Rp1411
ssg24
I73263
sg25
I68312
sssI155
(dp1412
g4
(dp1413
g6
I155
sg7
(dp1414
g9
g10
(g14
S'\x00\x00\x00\xa0\n\x97\xff?'
p1415
tp1416
Rp1417
sg20
g10
(g14
S'\x00\x00\x00 -\xf3\xd4?'
p1418
tp1419
Rp1420
ssg24
I73263
sg25
I68312
sssI156
(dp1421
g4
(dp1422
g6
I156
sg7
(dp1423
g9
g10
(g14
S'\x00\x00\x00\x80\x81\xa0\xf3?'
p1424
tp1425
Rp1426
sg20
g10
(g14
S'\x00\x00\x00@o\xf1\xe3?'
p1427
tp1428
Rp1429
ssg24
I73263
sg25
I68312
sssI157
(dp1430
g4
(dp1431
g6
I157
sg7
(dp1432
g9
g10
(g14
S'\x00\x00\x00@\x80\xdf\x00@'
p1433
tp1434
Rp1435
sg20
g10
(g14
S'\x00\x00\x00@\x0ct\xdc?'
p1436
tp1437
Rp1438
ssg24
I73610
sg25
I68312
sssI158
(dp1439
g4
(dp1440
g6
I158
sg7
(dp1441
g9
g10
(g14
S'\x00\x00\x00`\xcb\xe8\x03@'
p1442
tp1443
Rp1444
sg20
g10
(g14
S'\x00\x00\x00\xc0\xfe\xfc\xd2?'
p1445
tp1446
Rp1447
ssg24
I73610
sg25
I68312
sssI159
(dp1448
g4
(dp1449
g6
I159
sg7
(dp1450
g9
g10
(g14
S'\x00\x00\x00\x00\x9cS\x00@'
p1451
tp1452
Rp1453
sg20
g10
(g14
S'\x00\x00\x00\x00\xa3\xaf\xd5?'
p1454
tp1455
Rp1456
ssg24
I73610
sg25
I68312
sssI160
(dp1457
g4
(dp1458
g6
I160
sg7
(dp1459
g9
g10
(g14
S'\x00\x00\x00\x00\xf7\xc6\xd3?'
p1460
tp1461
Rp1462
sg20
g10
(g14
S'\x00\x00\x00@b\x05\xe7?'
p1463
tp1464
Rp1465
ssg24
I73873
sg25
I68312
sssI161
(dp1466
g4
(dp1467
g6
I161
sg7
(dp1468
g9
g10
(g14
S'\x00\x00\x00@\xf3K\xea?'
p1469
tp1470
Rp1471
sg20
g10
(g14
S'\x00\x00\x00\xc0, \xda?'
p1472
tp1473
Rp1474
ssg24
I73873
sg25
I68312
sssI162
(dp1475
g4
(dp1476
g6
I162
sg7
(dp1477
g9
g10
(g14
S'\x00\x00\x00`\x01\xf8\xe6?'
p1478
tp1479
Rp1480
sg20
g10
(g14
S'\x00\x00\x00\xc0\x81\xd4\xf0?'
p1481
tp1482
Rp1483
ssg24
I73873
sg25
I68312
sssI163
(dp1484
g4
(dp1485
g6
I163
sg7
(dp1486
g9
g10
(g14
S'\x00\x00\x00\xe0\x10N\xf0?'
p1487
tp1488
Rp1489
sg20
g10
(g14
S'\x00\x00\x00\xe0f\xe1\xf1?'
p1490
tp1491
Rp1492
ssg24
I73873
sg25
I68312
sssI164
(dp1493
g4
(dp1494
g6
I164
sg7
(dp1495
g9
g10
(g14
S'\x00\x00\x00 I$\xe6?'
p1496
tp1497
Rp1498
sg20
g10
(g14
S'\x00\x00\x00\x80\xfc*\xda?'
p1499
tp1500
Rp1501
ssg24
I73873
sg25
I68312
sssI165
(dp1502
g4
(dp1503
g6
I165
sg7
(dp1504
g9
g10
(g14
S'\x00\x00\x00\xa0\xb8\xbd\xe6?'
p1505
tp1506
Rp1507
sg20
g10
(g14
S'\x00\x00\x00\xa0\xb4\x17\xee?'
p1508
tp1509
Rp1510
ssg24
I73873
sg25
I68312
sssI166
(dp1511
g4
(dp1512
g6
I166
sg7
(dp1513
g9
g10
(g14
S'\x00\x00\x00\xc0\xce\xfd\xe6?'
p1514
tp1515
Rp1516
sg20
g10
(g14
S'\x00\x00\x00\xc0\x95\xe0\xec?'
p1517
tp1518
Rp1519
ssg24
I73873
sg25
I68312
sssI167
(dp1520
g4
(dp1521
g6
I167
sg7
(dp1522
g9
g10
(g14
S'\x00\x00\x00 I\xf4\xe6?'
p1523
tp1524
Rp1525
sg20
g10
(g14
S'\x00\x00\x00 \xbdl\xf0?'
p1526
tp1527
Rp1528
ssg24
I73873
sg25
I68312
sssI168
(dp1529
g4
(dp1530
g6
I168
sg7
(dp1531
g9
g10
(g14
S'\x00\x00\x00\xe0C\xe6\xe7?'
p1532
tp1533
Rp1534
sg20
g10
(g14
S'\x00\x00\x00\xc0H\xcd\xf4?'
p1535
tp1536
Rp1537
ssg24
I73873
sg25
I68312
sssI169
(dp1538
g4
(dp1539
g6
I169
sg7
(dp1540
g9
g10
(g14
S'\x00\x00\x00\xe0y\xde\xe2?'
p1541
tp1542
Rp1543
sg20
g10
(g14
S'\x00\x00\x00\xe0Q\x13\xe3?'
p1544
tp1545
Rp1546
ssg24
I73873
sg25
I68312
sssI170
(dp1547
g4
(dp1548
g6
I170
sg7
(dp1549
g9
g10
(g14
S'\x00\x00\x00`\x08\x90\xe3?'
p1550
tp1551
Rp1552
sg20
g10
(g14
S'\x00\x00\x00\xa0\xf7\xb4\xe7?'
p1553
tp1554
Rp1555
ssg24
I73873
sg25
I68312
sssI171
(dp1556
g4
(dp1557
g6
I171
sg7
(dp1558
g9
g10
(g14
S'\x00\x00\x00`\xd0\xfe\xf5?'
p1559
tp1560
Rp1561
sg20
g10
(g14
S'\x00\x00\x00\x80\xb1\x96\xe9?'
p1562
tp1563
Rp1564
ssg24
I73873
sg25
I68312
sssI172
(dp1565
g4
(dp1566
g6
I172
sg7
(dp1567
g9
g10
(g14
S'\x00\x00\x00\xe0\xccp\xfc?'
p1568
tp1569
Rp1570
sg20
g10
(g14
S'\x00\x00\x00 \xb1\xfb\xf1?'
p1571
tp1572
Rp1573
ssg24
I73873
sg25
I68312
sssI173
(dp1574
g4
(dp1575
g6
I173
sg7
(dp1576
g9
g10
(g14
S'\x00\x00\x00\xc0\xa1\xb8\xd3?'
p1577
tp1578
Rp1579
sg20
g10
(g14
S'\x00\x00\x00`\xed\xfc\xe9?'
p1580
tp1581
Rp1582
ssg24
I73873
sg25
I68312
sssI174
(dp1583
g4
(dp1584
g6
I174
sg7
(dp1585
g9
g10
(g14
S'\x00\x00\x00`\xf7\x82\xe1?'
p1586
tp1587
Rp1588
sg20
g10
(g14
S'\x00\x00\x00 \xa8-\xe3?'
p1589
tp1590
Rp1591
ssg24
I73873
sg25
I68312
sssI175
(dp1592
g4
(dp1593
g6
I175
sg7
(dp1594
g9
g10
(g14
S'\x00\x00\x00\xc0\x86"\xe1?'
p1595
tp1596
Rp1597
sg20
g10
(g14
S'\x00\x00\x00\xc0\x9d\\\xe4?'
p1598
tp1599
Rp1600
ssg24
I73873
sg25
I68312
sssI176
(dp1601
g4
(dp1602
g6
I176
sg7
(dp1603
g9
g10
(g14
S'\x00\x00\x00\xa0\xedK\xf1?'
p1604
tp1605
Rp1606
sg20
g10
(g14
S'\x00\x00\x00@\xaa\x93\xe7?'
p1607
tp1608
Rp1609
ssg24
I73873
sg25
I68312
sssI177
(dp1610
g4
(dp1611
g6
I177
sg7
(dp1612
g9
g10
(g14
S'\x00\x00\x00\xa0e\xba\xf4?'
p1613
tp1614
Rp1615
sg20
g10
(g14
S'\x00\x00\x00\xc0\x11\x11\xf1?'
p1616
tp1617
Rp1618
ssg24
I73873
sg25
I68312
sssI178
(dp1619
g4
(dp1620
g6
I178
sg7
(dp1621
g9
g10
(g14
S'\x00\x00\x00\x80}p\xfa?'
p1622
tp1623
Rp1624
sg20
g10
(g14
S'\x00\x00\x00`!u\xd7?'
p1625
tp1626
Rp1627
ssg24
I74573
sg25
I68312
sssI179
(dp1628
g4
(dp1629
g6
I179
sg7
(dp1630
g9
g10
(g14
S'\x00\x00\x00\x80\x00 \xfa?'
p1631
tp1632
Rp1633
sg20
g10
(g14
S'\x00\x00\x00\xe0x\x10\xd6?'
p1634
tp1635
Rp1636
ssg24
I74573
sg25
I68312
sssI180
(dp1637
g4
(dp1638
g6
I180
sg7
(dp1639
g9
g10
(g14
S'\x00\x00\x00`x\xc4\xfa?'
p1640
tp1641
Rp1642
sg20
g10
(g14
S'\x00\x00\x00\xe0\xcf\x81\xc8?'
p1643
tp1644
Rp1645
ssg24
I74573
sg25
I68312
sssI181
(dp1646
g4
(dp1647
g6
I181
sg7
(dp1648
g9
g10
(g14
S'\x00\x00\x00\xc0\xbe#\xf8?'
p1649
tp1650
Rp1651
sg20
g10
(g14
S'\x00\x00\x00\xc0f\xaf\xe4?'
p1652
tp1653
Rp1654
ssg24
I74742
sg25
I68312
sssI182
(dp1655
g4
(dp1656
g6
I182
sg7
(dp1657
g9
g10
(g14
S'\x00\x00\x00\x80\xa2q\xf8?'
p1658
tp1659
Rp1660
sg20
g10
(g14
S'\x00\x00\x00@bH\xcb?'
p1661
tp1662
Rp1663
ssg24
I74742
sg25
I68312
sssI183
(dp1664
g4
(dp1665
g6
I183
sg7
(dp1666
g9
g10
(g14
S'\x00\x00\x00\xe0\x8c\xaf\xf8?'
p1667
tp1668
Rp1669
sg20
g10
(g14
S'\x00\x00\x00\x00 \xa1\xd2?'
p1670
tp1671
Rp1672
ssg24
I74742
sg25
I68312
sssI184
(dp1673
g4
(dp1674
g6
I184
sg7
(dp1675
g9
g10
(g14
S'\x00\x00\x00\x00N\xec\xf6?'
p1676
tp1677
Rp1678
sg20
g10
(g14
S'\x00\x00\x00\xa0h8\xd9?'
p1679
tp1680
Rp1681
ssg24
I74742
sg25
I68312
sssI185
(dp1682
g4
(dp1683
g6
I185
sg7
(dp1684
g9
g10
(g14
S'\x00\x00\x00\xc0\xce\x89\xf3?'
p1685
tp1686
Rp1687
sg20
g10
(g14
S'\x00\x00\x00`bI\xe5?'
p1688
tp1689
Rp1690
ssg24
I74873
sg25
I68312
sssI186
(dp1691
g4
(dp1692
g6
I186
sg7
(dp1693
g9
g10
(g14
S'\x00\x00\x00 x9\xf6?'
p1694
tp1695
Rp1696
sg20
g10
(g14
S'\x00\x00\x00@\\\xd2\xe5?'
p1697
tp1698
Rp1699
ssg24
I74873
sg25
I68312
sssI187
(dp1700
g4
(dp1701
g6
I187
sg7
(dp1702
g9
g10
(g14
S'\x00\x00\x00 \x1e\xd7\xf3?'
p1703
tp1704
Rp1705
sg20
g10
(g14
S'\x00\x00\x00\xc0-\x87\xdd?'
p1706
tp1707
Rp1708
ssg24
I74873
sg25
I68312
sssI188
(dp1709
g4
(dp1710
g6
I188
sg7
(dp1711
g9
g10
(g14
S'\x00\x00\x00\x00\x05p\xfa?'
p1712
tp1713
Rp1714
sg20
g10
(g14
S'\x00\x00\x00\xe0c\xb4\xe2?'
p1715
tp1716
Rp1717
ssg24
I74948
sg25
I68312
sssI189
(dp1718
g4
(dp1719
g6
I189
sg7
(dp1720
g9
g10
(g14
S'\x00\x00\x00@\xf4z\xf8?'
p1721
tp1722
Rp1723
sg20
g10
(g14
S'\x00\x00\x00\x80\x15R\xe1?'
p1724
tp1725
Rp1726
ssg24
I74948
sg25
I68312
sssI190
(dp1727
g4
(dp1728
g6
I190
sg7
(dp1729
g9
g10
(g14
S'\x00\x00\x00@\x05\xc5\xf1?'
p1730
tp1731
Rp1732
sg20
g10
(g14
S'\x00\x00\x00@b\x0b\xd5?'
p1733
tp1734
Rp1735
ssg24
I74948
sg25
I68312
sssI191
(dp1736
g4
(dp1737
g6
I191
sg7
(dp1738
g9
g10
(g14
S'\x00\x00\x00\xc0\xcb/\xf6?'
p1739
tp1740
Rp1741
sg20
g10
(g14
S'\x00\x00\x00\xe0d\xbd\xd8?'
p1742
tp1743
Rp1744
ssg24
I74948
sg25
I68312
sssI192
(dp1745
g4
(dp1746
g6
I192
sg7
(dp1747
g9
g10
(g14
S'\x00\x00\x00@\xb0\xbd\xf6?'
p1748
tp1749
Rp1750
sg20
g10
(g14
S'\x00\x00\x00@bx\xf5?'
p1751
tp1752
Rp1753
ssg24
I75177
sg25
I68312
sssI193
(dp1754
g4
(dp1755
g6
I193
sg7
(dp1756
g9
g10
(g14
S'\x00\x00\x00 \xfa\xc4\xf6?'
p1757
tp1758
Rp1759
sg20
g10
(g14
S'\x00\x00\x00@A]\xe0?'
p1760
tp1761
Rp1762
ssg24
I75177
sg25
I68312
sssI194
(dp1763
g4
(dp1764
g6
I194
sg7
(dp1765
g9
g10
(g14
S'\x00\x00\x00\xe0wA\xfd?'
p1766
tp1767
Rp1768
sg20
g10
(g14
S'\x00\x00\x00@\x04\xf7\xdd?'
p1769
tp1770
Rp1771
ssg24
I75177
sg25
I68312
sssI195
(dp1772
g4
(dp1773
g6
I195
sg7
(dp1774
g9
g10
(g14
S'\x00\x00\x00\xc0\xe8\xc4\xf6?'
p1775
tp1776
Rp1777
sg20
g10
(g14
S'\x00\x00\x00\xe0\x92G\xd4?'
p1778
tp1779
Rp1780
ssg24
I75177
sg25
I68312
sssI196
(dp1781
g4
(dp1782
g6
I196
sg7
(dp1783
g9
g10
(g14
S'\x00\x00\x00\x80-i\xf6?'
p1784
tp1785
Rp1786
sg20
g10
(g14
S'\x00\x00\x00@T\xe6\xd8?'
p1787
tp1788
Rp1789
ssg24
I75177
sg25
I68312
sssI197
(dp1790
g4
(dp1791
g6
I197
sg7
(dp1792
g9
g10
(g14
S'\x00\x00\x00\x00\x10>\xfc?'
p1793
tp1794
Rp1795
sg20
g10
(g14
S'\x00\x00\x00\xc0U2\xf2?'
p1796
tp1797
Rp1798
ssg24
I75177
sg25
I68312
sssI198
(dp1799
g4
(dp1800
g6
I198
sg7
(dp1801
g9
g10
(g14
S'\x00\x00\x00\x80\xb7\xa7\xf7?'
p1802
tp1803
Rp1804
sg20
g10
(g14
S'\x00\x00\x00`\xe8k\xe2?'
p1805
tp1806
Rp1807
ssg24
I75177
sg25
I68312
sssI199
(dp1808
g4
(dp1809
g6
I199
sg7
(dp1810
g9
g10
(g14
S'\x00\x00\x00\xa0A\xac\xfb?'
p1811
tp1812
Rp1813
sg20
g10
(g14
S'\x00\x00\x00\x80\xf7\x94\xda?'
p1814
tp1815
Rp1816
ssg24
I75180
sg25
I68312
sssI200
(dp1817
g4
(dp1818
g6
I200
sg7
(dp1819
g9
g10
(g14
S'\x00\x00\x00 \x12\x91\xf6?'
p1820
tp1821
Rp1822
sg20
g10
(g14
S'\x00\x00\x00\xc0\xd8\xc8\xe3?'
p1823
tp1824
Rp1825
ssg24
I75180
sg25
I68312
sssI201
(dp1826
g4
(dp1827
g6
I201
sg7
(dp1828
g9
g10
(g14
S'\x00\x00\x00\xa0W\xda\xf6?'
p1829
tp1830
Rp1831
sg20
g10
(g14
S'\x00\x00\x00\x80\xd6\xc2\xcf?'
p1832
tp1833
Rp1834
ssg24
I75180
sg25
I68312
sssI202
(dp1835
g4
(dp1836
g6
I202
sg7
(dp1837
g9
g10
(g14
S'\x00\x00\x00\x00\xc4*\xf7?'
p1838
tp1839
Rp1840
sg20
g10
(g14
S'\x00\x00\x00\xc0\x89y\xe1?'
p1841
tp1842
Rp1843
ssg24
I75180
sg25
I68312
sssI203
(dp1844
g4
(dp1845
g6
I203
sg7
(dp1846
g9
g10
(g14
S'\x00\x00\x00\xc0p(\x03@'
p1847
tp1848
Rp1849
sg20
g10
(g14
S'\x00\x00\x00\xa0Y.\xe1?'
p1850
tp1851
Rp1852
ssg24
I76352
sg25
I68312
sssI204
(dp1853
g4
(dp1854
g6
I204
sg7
(dp1855
g9
g10
(g14
S'\x00\x00\x00 "T\x03@'
p1856
tp1857
Rp1858
sg20
g10
(g14
S'\x00\x00\x00`\xd5C\xcc?'
p1859
tp1860
Rp1861
ssg24
I76352
sg25
I68312
sssI205
(dp1862
g4
(dp1863
g6
I205
sg7
(dp1864
g9
g10
(g14
S'\x00\x00\x00\xe0\xe1\x82\x03@'
p1865
tp1866
Rp1867
sg20
g10
(g14
S'\x00\x00\x00\x00\x1a\x1b\xe2?'
p1868
tp1869
Rp1870
ssg24
I76352
sg25
I68312
sssI206
(dp1871
g4
(dp1872
g6
I206
sg7
(dp1873
g9
g10
(g14
S'\x00\x00\x00 \xc2\xa1\x02@'
p1874
tp1875
Rp1876
sg20
g10
(g14
S'\x00\x00\x00\x80\xdd\xa4\xdf?'
p1877
tp1878
Rp1879
ssg24
I76352
sg25
I68312
sssI207
(dp1880
g4
(dp1881
g6
I207
sg7
(dp1882
g9
g10
(g14
S'\x00\x00\x00`L\x1e\x02@'
p1883
tp1884
Rp1885
sg20
g10
(g14
S'\x00\x00\x00\xa0\xf6\x13\xe1?'
p1886
tp1887
Rp1888
ssg24
I77274
sg25
I68312
sssI208
(dp1889
g4
(dp1890
g6
I208
sg7
(dp1891
g9
g10
(g14
S'\x00\x00\x00\xe0\x10U\x02@'
p1892
tp1893
Rp1894
sg20
g10
(g14
S'\x00\x00\x00\xe0\xa0X\xdf?'
p1895
tp1896
Rp1897
ssg24
I77274
sg25
I68312
sssI209
(dp1898
g4
(dp1899
g6
I209
sg7
(dp1900
g9
g10
(g14
S'\x00\x00\x00\xc0\xff\x82\x02@'
p1901
tp1902
Rp1903
sg20
g10
(g14
S'\x00\x00\x00@;\x19\xdd?'
p1904
tp1905
Rp1906
ssg24
I77274
sg25
I68312
sssI210
(dp1907
g4
(dp1908
g6
I210
sg7
(dp1909
g9
g10
(g14
S'\x00\x00\x00`\xef\xa9\x02@'
p1910
tp1911
Rp1912
sg20
g10
(g14
S'\x00\x00\x00`E3\xc4?'
p1913
tp1914
Rp1915
ssg24
I77274
sg25
I68312
sssI211
(dp1916
g4
(dp1917
g6
I211
sg7
(dp1918
g9
g10
(g14
S'\x00\x00\x00@m\xd0\x02@'
p1919
tp1920
Rp1921
sg20
g10
(g14
S'\x00\x00\x00\xe0\x96\x94\xdf?'
p1922
tp1923
Rp1924
ssg24
I77274
sg25
I68312
sssI212
(dp1925
g4
(dp1926
g6
I212
sg7
(dp1927
g9
g10
(g14
S'\x00\x00\x00\xe0;d\x03@'
p1928
tp1929
Rp1930
sg20
g10
(g14
S'\x00\x00\x00 \xae\xf1\xdf?'
p1931
tp1932
Rp1933
ssg24
I77274
sg25
I68312
sssI213
(dp1934
g4
(dp1935
g6
I213
sg7
(dp1936
g9
g10
(g14
S'\x00\x00\x00\xc0`H\x04@'
p1937
tp1938
Rp1939
sg20
g10
(g14
S'\x00\x00\x00`\xa6\xeb\xe1?'
p1940
tp1941
Rp1942
ssg24
I77274
sg25
I68312
sssI214
(dp1943
g4
(dp1944
g6
I214
sg7
(dp1945
g9
g10
(g14
S'\x00\x00\x00\xe06\xc6\x04@'
p1946
tp1947
Rp1948
sg20
g10
(g14
S'\x00\x00\x00@&\x9f\xe3?'
p1949
tp1950
Rp1951
ssg24
I77274
sg25
I68312
sssI215
(dp1952
g4
(dp1953
g6
I215
sg7
(dp1954
g9
g10
(g14
S'\x00\x00\x00`pD\x04@'
p1955
tp1956
Rp1957
sg20
g10
(g14
S'\x00\x00\x00`\xc7K\xd9?'
p1958
tp1959
Rp1960
ssg24
I78274
sg25
I68312
sssI216
(dp1961
g4
(dp1962
g6
I216
sg7
(dp1963
g9
g10
(g14
S'\x00\x00\x00 \xd4j\x04@'
p1964
tp1965
Rp1966
sg20
g10
(g14
S'\x00\x00\x00@\xe0\x81\xda?'
p1967
tp1968
Rp1969
ssg24
I78274
sg25
I68312
sssI217
(dp1970
g4
(dp1971
g6
I217
sg7
(dp1972
g9
g10
(g14
S'\x00\x00\x00\xa0\xaa\x96\x04@'
p1973
tp1974
Rp1975
sg20
g10
(g14
S'\x00\x00\x00\x00\xc6\xbc\xd3?'
p1976
tp1977
Rp1978
ssg24
I78274
sg25
I68312
sssI218
(dp1979
g4
(dp1980
g6
I218
sg7
(dp1981
g9
g10
(g14
S'\x00\x00\x00\xc0\xc5j\x04@'
p1982
tp1983
Rp1984
sg20
g10
(g14
S'\x00\x00\x00\xa0\x00\x9c\xe0?'
p1985
tp1986
Rp1987
ssg24
I78445
sg25
I68312
sssI219
(dp1988
g4
(dp1989
g6
I219
sg7
(dp1990
g9
g10
(g14
S'\x00\x00\x00\x00\x19\x96\x04@'
p1991
tp1992
Rp1993
sg20
g10
(g14
S'\x00\x00\x00\xe0u-\xe8?'
p1994
tp1995
Rp1996
ssg24
I78445
sg25
I68312
sssI220
(dp1997
g4
(dp1998
g6
I220
sg7
(dp1999
g9
g10
(g14
S'\x00\x00\x00\xa0\xd7\xba\x04@'
p2000
tp2001
Rp2002
sg20
g10
(g14
S'\x00\x00\x00\xe0\xad\xae\xe4?'
p2003
tp2004
Rp2005
ssg24
I78445
sg25
I68312
sssI221
(dp2006
g4
(dp2007
g6
I221
sg7
(dp2008
g9
g10
(g14
S'\x00\x00\x00\xa0[\xe6\x04@'
p2009
tp2010
Rp2011
sg20
g10
(g14
S'\x00\x00\x00\xe0Ii\xe4?'
p2012
tp2013
Rp2014
ssg24
I78445
sg25
I68312
sssI222
(dp2015
g4
(dp2016
g6
I222
sg7
(dp2017
g9
g10
(g14
S'\x00\x00\x00\xa0\x0f\x83\x0c@'
p2018
tp2019
Rp2020
sg20
g10
(g14
S'\x00\x00\x00 \xd2\x83\xdf?'
p2021
tp2022
Rp2023
ssg24
I83090
sg25
I68312
sssI223
(dp2024
g4
(dp2025
g6
I223
sg7
(dp2026
g9
g10
(g14
S'\x00\x00\x00`\xc0\xae\x0c@'
p2027
tp2028
Rp2029
sg20
g10
(g14
S'\x00\x00\x00\xa0\xb4\xdd\xd2?'
p2030
tp2031
Rp2032
ssg24
I83090
sg25
I68312
sssI224
(dp2033
g4
(dp2034
g6
I224
sg7
(dp2035
g9
g10
(g14
S'\x00\x00\x00\x00\xc6\xd1\x0c@'
p2036
tp2037
Rp2038
sg20
g10
(g14
S'\x00\x00\x00\x80\x19\xae\xe2?'
p2039
tp2040
Rp2041
ssg24
I83090
sg25
I68312
sssI225
(dp2042
g4
(dp2043
g6
I225
sg7
(dp2044
g9
g10
(g14
S'\x00\x00\x00@\xa1f\x10@'
p2045
tp2046
Rp2047
sg20
g10
(g14
S"\x00\x00\x00\xa0'm\xdd?"
p2048
tp2049
Rp2050
ssg24
I83090
sg25
I68312
sssI226
(dp2051
g4
(dp2052
g6
I226
sg7
(dp2053
g9
g10
(g14
S'\x00\x00\x00\x80\x9b\xbe\x11@'
p2054
tp2055
Rp2056
sg20
g10
(g14
S'\x00\x00\x00\x80\x91\x06\xd6?'
p2057
tp2058
Rp2059
ssg24
I93923
sg25
I68312
sssI227
(dp2060
g4
(dp2061
g6
I227
sg7
(dp2062
g9
g10
(g14
S'\x00\x00\x00\x80\x0bP\x13@'
p2063
tp2064
Rp2065
sg20
g10
(g14
S'\x00\x00\x00`\x9d\xc8\xe0?'
p2066
tp2067
Rp2068
ssg24
I93923
sg25
I68312
sssI228
(dp2069
g4
(dp2070
g6
I228
sg7
(dp2071
g9
g10
(g14
S'\x00\x00\x00\xc0\x87\x89\x02@'
p2072
tp2073
Rp2074
sg20
g10
(g14
S'\x00\x00\x00 \x11b\xe2?'
p2075
tp2076
Rp2077
ssg24
I107030
sg25
I68312
sssI229
(dp2078
g4
(dp2079
g6
I229
sg7
(dp2080
g9
g10
(g14
S'\x00\x00\x00\x00\x1cL\x04@'
p2081
tp2082
Rp2083
sg20
g10
(g14
S'\x00\x00\x00`\xe1V\xe2?'
p2084
tp2085
Rp2086
ssg24
I107030
sg25
I68312
sssI230
(dp2087
g4
(dp2088
g6
I230
sg7
(dp2089
g9
g10
(g14
S'\x00\x00\x00\xe09\xf9\x04@'
p2090
tp2091
Rp2092
sg20
g10
(g14
S'\x00\x00\x00@\xa0\t\xc4?'
p2093
tp2094
Rp2095
ssg24
I107030
sg25
I68312
sssI231
(dp2096
g4
(dp2097
g6
I231
sg7
(dp2098
g9
g10
(g14
S'\x00\x00\x00\xc0\x96\r\xf7?'
p2099
tp2100
Rp2101
sg20
g10
(g14
S'\x00\x00\x00\x00\x1a\xaf\xe3?'
p2102
tp2103
Rp2104
ssg24
I134681
sg25
I68312
sssI232
(dp2105
g4
(dp2106
g6
I232
sg7
(dp2107
g9
g10
(g14
S'\x00\x00\x00\xe0 j\xf5?'
p2108
tp2109
Rp2110
sg20
g10
(g14
S'\x00\x00\x00\xe0\x97\xb1\xe2?'
p2111
tp2112
Rp2113
ssg24
I134681
sg25
I68312
sssI233
(dp2114
g4
(dp2115
g6
I233
sg7
(dp2116
g9
g10
(g14
S'\x00\x00\x00\xe0\x94I\x02@'
p2117
tp2118
Rp2119
sg20
g10
(g14
S'\x00\x00\x00`\xa19\xde?'
p2120
tp2121
Rp2122
ssg24
I135908
sg25
I68312
sssI234
(dp2123
g4
(dp2124
g6
I234
sg7
(dp2125
g9
g10
(g14
S'\x00\x00\x00\x80\xf8\xde\x02@'
p2126
tp2127
Rp2128
sg20
g10
(g14
S'\x00\x00\x00`\x19\xb2\xe4?'
p2129
tp2130
Rp2131
ssg24
I135908
sg25
I68312
sssI235
(dp2132
g4
(dp2133
g6
I235
sg7
(dp2134
g9
g10
(g14
S'\x00\x00\x00\xe0^\xdc\x02@'
p2135
tp2136
Rp2137
sg20
g10
(g14
S'\x00\x00\x00\xa0\xac\x19\xe4?'
p2138
tp2139
Rp2140
ssg24
I135908
sg25
I68312
sssI236
(dp2141
g4
(dp2142
g6
I236
sg7
(dp2143
g9
g10
(g14
S'\x00\x00\x00\x80\x07S\xf7?'
p2144
tp2145
Rp2146
sg20
g10
(g14
S'\x00\x00\x00\x80\x90)\xe3?'
p2147
tp2148
Rp2149
ssg24
I136806
sg25
I68312
sssI237
(dp2150
g4
(dp2151
g6
I237
sg7
(dp2152
g9
g10
(g14
S'\x00\x00\x00\xc0!C\xf9?'
p2153
tp2154
Rp2155
sg20
g10
(g14
S'\x00\x00\x00\x00\xbf\xac\xe2?'
p2156
tp2157
Rp2158
ssg24
I136806
sg25
I68312
sssI238
(dp2159
g4
(dp2160
g6
I238
sg7
(dp2161
g9
g10
(g14
S'\x00\x00\x00\x00\xa5\x19\x06@'
p2162
tp2163
Rp2164
sg20
g10
(g14
S'\x00\x00\x00 \x96\xcf\xcf?'
p2165
tp2166
Rp2167
ssg24
I136806
sg25
I68312
sssI239
(dp2168
g4
(dp2169
g6
I239
sg7
(dp2170
g9
g10
(g14
S'\x00\x00\x00 [\xef\x0f@'
p2171
tp2172
Rp2173
sg20
g10
(g14
S'\x00\x00\x00\xc0\x14\x85\xcc?'
p2174
tp2175
Rp2176
ssg24
I153967
sg25
I68312
sssI240
(dp2177
g4
(dp2178
g6
I240
sg7
(dp2179
g9
g10
(g14
S'\x00\x00\x00\x00\xb7\x8d\x0e@'
p2180
tp2181
Rp2182
sg20
g10
(g14
S'\x00\x00\x00\xa0Ps\xcb?'
p2183
tp2184
Rp2185
ssg24
I153967
sg25
I68312
sssI241
(dp2186
g4
(dp2187
g6
I241
sg7
(dp2188
g9
g10
(g14
S'\x00\x00\x00\x80\xc5I\r@'
p2189
tp2190
Rp2191
sg20
g10
(g14
S'\x00\x00\x00\xe0\xf3\xe0\xd4?'
p2192
tp2193
Rp2194
ssg24
I153967
sg25
I68312
sssI242
(dp2195
g4
(dp2196
g6
I242
sg7
(dp2197
g9
g10
(g14
S'\x00\x00\x00 \x08\xd2\xfe?'
p2198
tp2199
Rp2200
sg20
g10
(g14
S'\x00\x00\x00\xc0$E\xd0?'
p2201
tp2202
Rp2203
ssg24
I158339
sg25
I68312
sssI243
(dp2204
g4
(dp2205
g6
I243
sg7
(dp2206
g9
g10
(g14
S'\x00\x00\x00\xe0\x8e\x17\xff?'
p2207
tp2208
Rp2209
sg20
g10
(g14
S'\x00\x00\x00\xc0b\xc7\xe3?'
p2210
tp2211
Rp2212
ssg24
I158339
sg25
I68312
sssI244
(dp2213
g4
(dp2214
g6
I244
sg7
(dp2215
g9
g10
(g14
S'\x00\x00\x00\x80!V\x01@'
p2216
tp2217
Rp2218
sg20
g10
(g14
S'\x00\x00\x00\x80\xcf\x1a\xd0?'
p2219
tp2220
Rp2221
ssg24
I158339
sg25
I68312
sssI245
(dp2222
g4
(dp2223
g6
I245
sg7
(dp2224
g9
g10
(g14
S'\x00\x00\x00`\xf5\xe2\xfe?'
p2225
tp2226
Rp2227
sg20
g10
(g14
S'\x00\x00\x00\xc0\xda\xdc\xdb?'
p2228
tp2229
Rp2230
ssg24
I158339
sg25
I68312
sssI246
(dp2231
g4
(dp2232
g6
I246
sg7
(dp2233
g9
g10
(g14
S'\x00\x00\x00\xc0\xe6\xff\x00@'
p2234
tp2235
Rp2236
sg20
g10
(g14
S'\x00\x00\x00\x80]D\xe5?'
p2237
tp2238
Rp2239
ssg24
I159357
sg25
I68312
sssI247
(dp2240
g4
(dp2241
g6
I247
sg7
(dp2242
g9
g10
(g14
S'\x00\x00\x00 B%\x03@'
p2243
tp2244
Rp2245
sg20
g10
(g14
S'\x00\x00\x00`8\x1a\xdc?'
p2246
tp2247
Rp2248
ssg24
I159357
sg25
I68312
sssI248
(dp2249
g4
(dp2250
g6
I248
sg7
(dp2251
g9
g10
(g14
S'\x00\x00\x00\xa0\x91a\x02@'
p2252
tp2253
Rp2254
sg20
g10
(g14
S'\x00\x00\x00@\\\x0e\xde?'
p2255
tp2256
Rp2257
ssg24
I159357
sg25
I68312
sssI249
(dp2258
g4
(dp2259
g6
I249
sg7
(dp2260
g9
g10
(g14
S'\x00\x00\x00\xe0i\xf0\xf9?'
p2261
tp2262
Rp2263
sg20
g10
(g14
S'\x00\x00\x00\x80\x1a\xa5\xda?'
p2264
tp2265
Rp2266
ssg24
I166979
sg25
I68312
sssI250
(dp2267
g4
(dp2268
g6
I250
sg7
(dp2269
g9
g10
(g14
S'\x00\x00\x00\xc0\xc8=\xfa?'
p2270
tp2271
Rp2272
sg20
g10
(g14
S'\x00\x00\x00\xa0I\x8a\xc6?'
p2273
tp2274
Rp2275
ssg24
I166979
sg25
I68312
sssI251
(dp2276
g4
(dp2277
g6
I251
sg7
(dp2278
g9
g10
(g14
S'\x00\x00\x00\xe0\xe8\x87\xfa?'
p2279
tp2280
Rp2281
sg20
g10
(g14
S'\x00\x00\x00\xe0*i\xe0?'
p2282
tp2283
Rp2284
ssg24
I166979
sg25
I68312
sssI252
(dp2285
g4
(dp2286
g6
I252
sg7
(dp2287
g9
g10
(g14
S'\x00\x00\x00\xe0\xfd\x90\xff?'
p2288
tp2289
Rp2290
sg20
g10
(g14
S'\x00\x00\x00\xc0\xf7H\xcc?'
p2291
tp2292
Rp2293
ssg24
I166979
sg25
I68312
sssI253
(dp2294
g4
(dp2295
g6
I253
sg7
(dp2296
g9
g10
(g14
S'\x00\x00\x00 \xa4\xb5\xfb?'
p2297
tp2298
Rp2299
sg20
g10
(g14
S'\x00\x00\x00\x80\xdb\xc3\xe1?'
p2300
tp2301
Rp2302
ssg24
I168065
sg25
I68312
sssI254
(dp2303
g4
(dp2304
g6
I254
sg7
(dp2305
g9
g10
(g14
S'\x00\x00\x00\xe0$\x99\xfd?'
p2306
tp2307
Rp2308
sg20
g10
(g14
S'\x00\x00\x00`G\x11\xe0?'
p2309
tp2310
Rp2311
ssg24
I168065
sg25
I68312
sssI255
(dp2312
g4
(dp2313
g6
I255
sg7
(dp2314
g9
g10
(g14
S'\x00\x00\x00\xa0\x1d\xef\xfd?'
p2315
tp2316
Rp2317
sg20
g10
(g14
S'\x00\x00\x00\xe0Gh\xd7?'
p2318
tp2319
Rp2320
ssg24
I168065
sg25
I68312
sssI256
(dp2321
g4
(dp2322
g6
I256
sg7
(dp2323
g9
g10
(g14
S'\x00\x00\x00\x80\xa5A\xf1?'
p2324
tp2325
Rp2326
sg20
g10
(g14
S'\x00\x00\x00\xa0{\xec\xe4?'
p2327
tp2328
Rp2329
ssg24
I168513
sg25
I68312
sssI257
(dp2330
g4
(dp2331
g6
I257
sg7
(dp2332
g9
g10
(g14
S'\x00\x00\x00`\x05\x84\xec?'
p2333
tp2334
Rp2335
sg20
g10
(g14
S'\x00\x00\x00\xe0\xb3\x0f\xe0?'
p2336
tp2337
Rp2338
ssg24
I168513
sg25
I68312
sssI258
(dp2339
g4
(dp2340
g6
I258
sg7
(dp2341
g9
g10
(g14
S'\x00\x00\x00`B\xeb\xf0?'
p2342
tp2343
Rp2344
sg20
g10
(g14
S'\x00\x00\x00`\xe8[\xe0?'
p2345
tp2346
Rp2347
ssg24
I168513
sg25
I68312
sssI259
(dp2348
g4
(dp2349
g6
I259
sg7
(dp2350
g9
g10
(g14
S'\x00\x00\x00\xe0\xa34\xe8?'
p2351
tp2352
Rp2353
sg20
g10
(g14
S'\x00\x00\x00\xe0\xd3L\xe5?'
p2354
tp2355
Rp2356
ssg24
I168513
sg25
I68312
sssI260
(dp2357
g4
(dp2358
g6
I260
sg7
(dp2359
g9
g10
(g14
S'\x00\x00\x00\xa0Rf\x08@'
p2360
tp2361
Rp2362
sg20
g10
(g14
S'\x00\x00\x00\xc0A\x8c\xd6?'
p2363
tp2364
Rp2365
ssg24
I170012
sg25
I68312
sssI261
(dp2366
g4
(dp2367
g6
I261
sg7
(dp2368
g9
g10
(g14
S'\x00\x00\x00`!\n\x08@'
p2369
tp2370
Rp2371
sg20
g10
(g14
S'\x00\x00\x00`!\xf2\xd8?'
p2372
tp2373
Rp2374
ssg24
I170012
sg25
I68312
sssI262
(dp2375
g4
(dp2376
g6
I262
sg7
(dp2377
g9
g10
(g14
S'\x00\x00\x00\xc0\x18\xe0\t@'
p2378
tp2379
Rp2380
sg20
g10
(g14
S'\x00\x00\x00\xc0\xbd\xa9\xe1?'
p2381
tp2382
Rp2383
ssg24
I170012
sg25
I68312
sssI263
(dp2384
g4
(dp2385
g6
I263
sg7
(dp2386
g9
g10
(g14
S'\x00\x00\x00\x00\xefg\xfc?'
p2387
tp2388
Rp2389
sg20
g10
(g14
S'\x00\x00\x00\x00\xe4\x96\xde?'
p2390
tp2391
Rp2392
ssg24
I172041
sg25
I68312
sssI264
(dp2393
g4
(dp2394
g6
I264
sg7
(dp2395
g9
g10
(g14
S'\x00\x00\x00\x80\xd6\xd6\x03@'
p2396
tp2397
Rp2398
sg20
g10
(g14
S'\x00\x00\x00\x80[\xdf\xe1?'
p2399
tp2400
Rp2401
ssg24
I172041
sg25
I68312
sssI265
(dp2402
g4
(dp2403
g6
I265
sg7
(dp2404
g9
g10
(g14
S'\x00\x00\x00\x80\x1a\xae\x02@'
p2405
tp2406
Rp2407
sg20
g10
(g14
S'\x00\x00\x00\xc0\x19Q\xd6?'
p2408
tp2409
Rp2410
ssg24
I172041
sg25
I68312
sssI266
(dp2411
g4
(dp2412
g6
I266
sg7
(dp2413
g9
g10
(g14
S'\x00\x00\x00@\xc3\xeb\x02@'
p2414
tp2415
Rp2416
sg20
g10
(g14
S'\x00\x00\x00\xc04Q\xe5?'
p2417
tp2418
Rp2419
ssg24
I172041
sg25
I68312
sssI267
(dp2420
g4
(dp2421
g6
I267
sg7
(dp2422
g9
g10
(g14
S'\x00\x00\x00@)\x15\xee?'
p2423
tp2424
Rp2425
sg20
g10
(g14
S'\x00\x00\x00\x00.\xf6\xcd?'
p2426
tp2427
Rp2428
ssg24
I194151
sg25
I68312
sssI268
(dp2429
g4
(dp2430
g6
I268
sg7
(dp2431
g9
g10
(g14
S'\x00\x00\x00 \xb8\xfd\xef?'
p2432
tp2433
Rp2434
sg20
g10
(g14
S'\x00\x00\x00`oo\xe2?'
p2435
tp2436
Rp2437
ssg24
I194151
sg25
I68312
sssI269
(dp2438
g4
(dp2439
g6
I269
sg7
(dp2440
g9
g10
(g14
S'\x00\x00\x00\xc0\x9c\xa1\xfa?'
p2441
tp2442
Rp2443
sg20
g10
(g14
S'\x00\x00\x00\xa0Q\xd4\xd1?'
p2444
tp2445
Rp2446
ssg24
I194151
sg25
I68312
sssI270
(dp2447
g4
(dp2448
g6
I270
sg7
(dp2449
g9
g10
(g14
S'\x00\x00\x00\x00\xc4\xf5\xfa?'
p2450
tp2451
Rp2452
sg20
g10
(g14
S'\x00\x00\x00\xc0\xe4\xa3\xd7?'
p2453
tp2454
Rp2455
ssg24
I194151
sg25
I68312
sssI271
(dp2456
g4
(dp2457
g6
I271
sg7
(dp2458
g9
g10
(g14
S'\x00\x00\x00`Ep\xf8?'
p2459
tp2460
Rp2461
sg20
g10
(g14
S'\x00\x00\x00\xa0\xb9\xda\xe3?'
p2462
tp2463
Rp2464
ssg24
I197535
sg25
I68312
sssI272
(dp2465
g4
(dp2466
g6
I272
sg7
(dp2467
g9
g10
(g14
S'\x00\x00\x00@\x8b\xc1\xf7?'
p2468
tp2469
Rp2470
sg20
g10
(g14
S'\x00\x00\x00`\x9c\x8f\xe0?'
p2471
tp2472
Rp2473
ssg24
I197535
sg25
I68312
sssI273
(dp2474
g4
(dp2475
g6
I273
sg7
(dp2476
g9
g10
(g14
S'\x00\x00\x00\x80\x18\xce\xfb?'
p2477
tp2478
Rp2479
sg20
g10
(g14
S'\x00\x00\x00 \xa1\xae\xdc?'
p2480
tp2481
Rp2482
ssg24
I197535
sg25
I68312
sssI274
(dp2483
g4
(dp2484
g6
I274
sg7
(dp2485
g9
g10
(g14
S'\x00\x00\x00\x80\xdaw\x06@'
p2486
tp2487
Rp2488
sg20
g10
(g14
S'\x00\x00\x00@\xcc\x04\xde?'
p2489
tp2490
Rp2491
ssg24
I199731
sg25
I68312
sssI275
(dp2492
g4
(dp2493
g6
I275
sg7
(dp2494
g9
g10
(g14
S'\x00\x00\x00\xa0\x8d\xa1\x06@'
p2495
tp2496
Rp2497
sg20
g10
(g14
S'\x00\x00\x00\xc0\xa6\xf6\xd5?'
p2498
tp2499
Rp2500
ssg24
I199731
sg25
I68312
sssI276
(dp2501
g4
(dp2502
g6
I276
sg7
(dp2503
g9
g10
(g14
S'\x00\x00\x00\xa0\xdf\xd0\x06@'
p2504
tp2505
Rp2506
sg20
g10
(g14
S'\x00\x00\x00 -\x01\xe4?'
p2507
tp2508
Rp2509
ssg24
I199731
sg25
I68312
sssI277
(dp2510
g4
(dp2511
g6
I277
sg7
(dp2512
g9
g10
(g14
S'\x00\x00\x00`\x84|\x01@'
p2513
tp2514
Rp2515
sg20
g10
(g14
S'\x00\x00\x00`oh\xe5?'
p2516
tp2517
Rp2518
ssg24
I199867
sg25
I68312
sssI278
(dp2519
g4
(dp2520
g6
I278
sg7
(dp2521
g9
g10
(g14
S'\x00\x00\x00\xc0\x8aY\x03@'
p2522
tp2523
Rp2524
sg20
g10
(g14
S'\x00\x00\x00\x00\xc8 \xe2?'
p2525
tp2526
Rp2527
ssg24
I199867
sg25
I68312
sssI279
(dp2528
g4
(dp2529
g6
I279
sg7
(dp2530
g9
g10
(g14
S'\x00\x00\x00`>i\x02@'
p2531
tp2532
Rp2533
sg20
g10
(g14
S'\x00\x00\x00` \xa5\xdf?'
p2534
tp2535
Rp2536
ssg24
I199867
sg25
I68312
sssI280
(dp2537
g4
(dp2538
g6
I280
sg7
(dp2539
g9
g10
(g14
S'\x00\x00\x00\xa0\xaf\xff\n@'
p2540
tp2541
Rp2542
sg20
g10
(g14
S'\x00\x00\x00`\x98\xcc\xe0?'
p2543
tp2544
Rp2545
ssg24
I201326
sg25
I68312
sssI281
(dp2546
g4
(dp2547
g6
I281
sg7
(dp2548
g9
g10
(g14
S'\x00\x00\x00\x00\xa2-\x0b@'
p2549
tp2550
Rp2551
sg20
g10
(g14
S'\x00\x00\x00\xc0 \xd9\xc4?'
p2552
tp2553
Rp2554
ssg24
I201326
sg25
I68312
sssI282
(dp2555
g4
(dp2556
g6
I282
sg7
(dp2557
g9
g10
(g14
S'\x00\x00\x00\x00tU\x0b@'
p2558
tp2559
Rp2560
sg20
g10
(g14
S'\x00\x00\x00`"\xf2\xe5?'
p2561
tp2562
Rp2563
ssg24
I201326
sg25
I68312
sssI283
(dp2564
g4
(dp2565
g6
I283
sg7
(dp2566
g9
g10
(g14
S'\x00\x00\x00`\xdd\xe3\t@'
p2567
tp2568
Rp2569
sg20
g10
(g14
S'\x00\x00\x00\xc02\x05\xd3?'
p2570
tp2571
Rp2572
ssg24
I201326
sg25
I68312
sssI284
(dp2573
g4
(dp2574
g6
I284
sg7
(dp2575
g9
g10
(g14
S'\x00\x00\x00 \xa2\xc5\x1d@'
p2576
tp2577
Rp2578
sg20
g10
(g14
S'\x00\x00\x00@\x14T\xf4?'
p2579
tp2580
Rp2581
ssg24
I212841
sg25
I68312
sssI285
(dp2582
g4
(dp2583
g6
I285
sg7
(dp2584
g9
g10
(g14
S'\x00\x00\x00\x807\xcd\x1d@'
p2585
tp2586
Rp2587
sg20
g10
(g14
S'\x00\x00\x00\xe0\xdd\x98\xe8?'
p2588
tp2589
Rp2590
ssg24
I212841
sg25
I68312
sssI286
(dp2591
g4
(dp2592
g6
I286
sg7
(dp2593
g9
g10
(g14
S'\x00\x00\x00\xe0@\xcc\x1d@'
p2594
tp2595
Rp2596
sg20
g10
(g14
S'\x00\x00\x00\xe0\x98\xbf\xf1?'
p2597
tp2598
Rp2599
ssg24
I212841
sg25
I68312
sssI287
(dp2600
g4
(dp2601
g6
I287
sg7
(dp2602
g9
g10
(g14
S'\x00\x00\x00@\xea\xd4\x1d@'
p2603
tp2604
Rp2605
sg20
g10
(g14
S'\x00\x00\x00\x80\xa9\xc9\xf1?'
p2606
tp2607
Rp2608
ssg24
I212841
sg25
I68312
sssI288
(dp2609
g4
(dp2610
g6
I288
sg7
(dp2611
g9
g10
(g14
S'\x00\x00\x00\xa0_\xde\x1d@'
p2612
tp2613
Rp2614
sg20
g10
(g14
S'\x00\x00\x00\x80B\xaa\xd8?'
p2615
tp2616
Rp2617
ssg24
I212841
sg25
I68312
sssI289
(dp2618
g4
(dp2619
g6
I289
sg7
(dp2620
g9
g10
(g14
S'\x00\x00\x00\xa0&\xce\x1d@'
p2621
tp2622
Rp2623
sg20
g10
(g14
S'\x00\x00\x00\xa0\x89^\xe3?'
p2624
tp2625
Rp2626
ssg24
I212841
sg25
I68312
sssI290
(dp2627
g4
(dp2628
g6
I290
sg7
(dp2629
g9
g10
(g14
S'\x00\x00\x00\x00\xac\xe2\x1d@'
p2630
tp2631
Rp2632
sg20
g10
(g14
S'\x00\x00\x00\x80k\x80\xf4?'
p2633
tp2634
Rp2635
ssg24
I212841
sg25
I68312
sssI291
(dp2636
g4
(dp2637
g6
I291
sg7
(dp2638
g9
g10
(g14
S'\x00\x00\x00\xa0@\xf7\x1d@'
p2639
tp2640
Rp2641
sg20
g10
(g14
S'\x00\x00\x00\x00\x12\x0c\xf4?'
p2642
tp2643
Rp2644
ssg24
I212841
sg25
I68312
sssI292
(dp2645
g4
(dp2646
g6
I292
sg7
(dp2647
g9
g10
(g14
S'\x00\x00\x00`\x05\x98\x1d@'
p2648
tp2649
Rp2650
sg20
g10
(g14
S'\x00\x00\x00\xe0E`\xf3?'
p2651
tp2652
Rp2653
ssg24
I212841
sg25
I68312
sssa(dp2654
I0
(dp2655
g24
I38873
sS'post_segx'
p2656
g10
(g14
S'P\xa9\xa3\x11\xbc\xac\xe6?'
p2657
tp2658
Rp2659
sg4
(dp2660
S'post_sec_id'
p2661
I377
sS'synapse_id'
p2662
I0
sS'randseed3'
p2663
NsS'randseed2'
p2664
I175248
sS'randseed1'
p2665
I100
sg2656
g2659
sS'synapse_parameters'
p2666
(dp2667
S'Dep'
p2668
F682.0
sS'Fac'
p2669
F20.0
sS'Use'
p2670
F0.21719770079129336
sS'tau_d_AMPA'
p2671
F1.8538414239883423
ssS'syn_type'
p2672
I117
sS'synapseconfigure_cmds'
p2673
(lp2674
S'%s.mg = 1.0'
p2675
aS'%s.Use *= 0.423677166383'
p2676
aS'%s.NMDA_ratio = 0.8'
p2677
asg24
I38873
sS'mech_name'
p2678
S'ProbAMPANMDA_EMS'
p2679
sS'post_sec_name'
p2680
S'dend[107]'
p2681
sg25
I68312
ssg2680
S'dend[107]'
p2682
ssI1
(dp2683
g24
I38873
sg2656
F1e-07
sg4
(dp2684
g2661
I0
sg2662
I1
sg2663
Nsg2664
I175248
sg2665
I100100
sg2656
F1e-07
sg2666
(dp2685
g2668
F683.0
sg2669
F21.0
sg2670
F0.21783274117600518
sg2671
F1.8673312664031982
ssg2672
I117
sg2673
(lp2686
g2675
ag2676
ag2677
asg24
I38873
sg2678
g2679
sg2680
S'soma[0]'
p2687
sg25
I68312
ssg2680
S'soma[0]'
p2688
ssI2
(dp2689
g24
I38873
sg2656
F1e-07
sg4
(dp2690
g2661
I0
sg2662
I2
sg2663
Nsg2664
I175248
sg2665
I200100
sg2656
F1e-07
sg2666
(dp2691
g2668
F675.0
sg2669
F18.0
sg2670
F0.21382383251761186
sg2671
F1.7821718454360962
ssg2672
I117
sg2673
(lp2692
g2675
ag2676
ag2677
asg24
I38873
sg2678
g2679
sg2680
S'soma[0]'
p2693
sg25
I68312
ssg2680
S'soma[0]'
p2694
ssI3
(dp2695
g24
I38873
sg2656
g10
(g14
S'q=\xf9\x85\x02\x8b\xdb?'
p2696
tp2697
Rp2698
sg4
(dp2699
g2661
I274
sg2662
I3
sg2663
Nsg2664
I175248
sg2665
I300100
sg2656
g2698
sg2666
(dp2700
g2668
F676.0
sg2669
F18.0
sg2670
F0.21417053269821826
sg2671
F1.789536476135254
ssg2672
I117
sg2673
(lp2701
g2675
ag2676
ag2677
asg24
I38873
sg2678
g2679
sg2680
S'dend[4]'
p2702
sg25
I68312
ssg2680
S'dend[4]'
p2703
ssI4
(dp2704
g24
I40579
sg2656
g10
(g14
S'c\xf1D\xea\xe8\xae\xe2?'
p2705
tp2706
Rp2707
sg4
(dp2708
g2661
I377
sg2662
I4
sg2663
Nsg2664
I175248
sg2665
I400100
sg2656
g2707
sg2666
(dp2709
g2668
F662.0
sg2669
F14.0
sg2670
F0.20753125833132757
sg2671
F1.6485012769699097
ssg2672
I117
sg2673
(lp2710
g2675
ag2676
ag2677
asg24
I40579
sg2678
g2679
sg2680
S'dend[107]'
p2711
sg25
I68312
ssg2680
S'dend[107]'
p2712
ssI5
(dp2713
g24
I40579
sg2656
g10
(g14
S'\xffV\xba\x834\xc7\xe1?'
p2714
tp2715
Rp2716
sg4
(dp2717
g2661
I377
sg2662
I5
sg2663
Nsg2664
I175248
sg2665
I500100
sg2656
g2716
sg2666
(dp2718
g2668
F669.0
sg2669
F16.0
sg2670
F0.2107038844359325
sg2671
F1.7158961296081543
ssg2672
I117
sg2673
(lp2719
g2675
ag2676
ag2677
asg24
I40579
sg2678
g2679
sg2680
S'dend[107]'
p2720
sg25
I68312
ssg2680
S'dend[107]'
p2721
ssI6
(dp2722
g24
I40579
sg2656
g10
(g14
S'4^\xf7\x9c:\xee\xe1?'
p2723
tp2724
Rp2725
sg4
(dp2726
g2661
I377
sg2662
I6
sg2663
Nsg2664
I175248
sg2665
I600100
sg2656
g2725
sg2666
(dp2727
g2668
F681.0
sg2669
F20.0
sg2670
F0.21689673402368706
sg2671
F1.8474482297897339
ssg2672
I117
sg2673
(lp2728
g2675
ag2676
ag2677
asg24
I40579
sg2678
g2679
sg2680
S'dend[107]'
p2729
sg25
I68312
ssg2680
S'dend[107]'
p2730
ssI7
(dp2731
g24
I63421
sg2656
g10
(g14
S'\x1d\xc3\x8c\xec\xdf\xc3\xd1?'
p2732
tp2733
Rp2734
sg4
(dp2735
g2661
I290
sg2662
I7
sg2663
Nsg2664
I175248
sg2665
I700100
sg2656
g2734
sg2666
(dp2736
g2668
F667.0
sg2669
F16.0
sg2670
F0.21002090098960793
sg2671
F1.701387643814087
ssg2672
I117
sg2673
(lp2737
g2675
ag2676
ag2677
asg24
I63421
sg2678
g2679
sg2680
S'dend[20]'
p2738
sg25
I68312
ssg2680
S'dend[20]'
p2739
ssI8
(dp2740
g24
I63421
sg2656
F1e-07
sg4
(dp2741
g2661
I0
sg2662
I8
sg2663
Nsg2664
I175248
sg2665
I800100
sg2656
F1e-07
sg2666
(dp2742
g2668
F680.0
sg2669
F20.0
sg2670
F0.2165383163921519
sg2671
F1.8398343324661255
ssg2672
I117
sg2673
(lp2743
g2675
ag2676
ag2677
asg24
I63421
sg2678
g2679
sg2680
S'soma[0]'
p2744
sg25
I68312
ssg2680
S'soma[0]'
p2745
ssI9
(dp2746
g24
I63421
sg2656
F1e-07
sg4
(dp2747
g2661
I0
sg2662
I9
sg2663
Nsg2664
I175248
sg2665
I900100
sg2656
F1e-07
sg2666
(dp2748
g2668
F687.0
sg2669
F22.0
sg2670
F0.2196749567907794
sg2671
F1.90646493434906
ssg2672
I117
sg2673
(lp2749
g2675
ag2676
ag2677
asg24
I63421
sg2678
g2679
sg2680
S'soma[0]'
p2750
sg25
I68312
ssg2680
S'soma[0]'
p2751
ssI10
(dp2752
g24
I63421
sg2656
F1e-07
sg4
(dp2753
g2661
I0
sg2662
I10
sg2663
Nsg2664
I175248
sg2665
I1000100
sg2656
F1e-07
sg2666
(dp2754
g2668
F686.0
sg2669
F21.0
sg2670
F0.21939492486545753
sg2671
F1.900516152381897
ssg2672
I117
sg2673
(lp2755
g2675
ag2676
ag2677
asg24
I63421
sg2678
g2679
sg2680
S'soma[0]'
p2756
sg25
I68312
ssg2680
S'soma[0]'
p2757
ssI11
(dp2758
g24
I63421
sg2656
F1e-07
sg4
(dp2759
g2661
I0
sg2662
I11
sg2663
Nsg2664
I175248
sg2665
I1100100
sg2656
F1e-07
sg2666
(dp2760
g2668
F667.0
sg2669
F16.0
sg2670
F0.2100348533422764
sg2671
F1.7016841173171997
ssg2672
I117
sg2673
(lp2761
g2675
ag2676
ag2677
asg24
I63421
sg2678
g2679
sg2680
S'soma[0]'
p2762
sg25
I68312
ssg2680
S'soma[0]'
p2763
ssI12
(dp2764
g24
I63696
sg2656
g10
(g14
S'\xe7\xa3\x92 f\xe0\xa3?'
p2765
tp2766
Rp2767
sg4
(dp2768
g2661
I365
sg2662
I12
sg2663
Nsg2664
I175248
sg2665
I1200100
sg2656
g2767
sg2666
(dp2769
g2668
F679.0
sg2669
F19.0
sg2670
F0.21590754378590338
sg2671
F1.8264354467391968
ssg2672
I117
sg2673
(lp2770
g2675
ag2676
ag2677
asg24
I63696
sg2678
g2679
sg2680
S'dend[95]'
p2771
sg25
I68312
ssg2680
S'dend[95]'
p2772
ssI13
(dp2773
g24
I63696
sg2656
g10
(g14
S'}\r\x91\x90\xe08\xca?'
p2774
tp2775
Rp2776
sg4
(dp2777
g2661
I336
sg2662
I13
sg2663
Nsg2664
I175248
sg2665
I1300100
sg2656
g2776
sg2666
(dp2778
g2668
F673.0
sg2669
F18.0
sg2670
F0.21274534722275015
sg2671
F1.7592620849609375
ssg2672
I117
sg2673
(lp2779
g2675
ag2676
ag2677
asg24
I63696
sg2678
g2679
sg2680
S'dend[66]'
p2780
sg25
I68312
ssg2680
S'dend[66]'
p2781
ssI14
(dp2782
g24
I63696
sg2656
g10
(g14
S'\x1bO\x1b@~\xfd\xaf?'
p2783
tp2784
Rp2785
sg4
(dp2786
g2661
I385
sg2662
I14
sg2663
Nsg2664
I175248
sg2665
I1400100
sg2656
g2785
sg2666
(dp2787
g2668
F673.0
sg2669
F18.0
sg2670
F0.21289956806934954
sg2671
F1.762538194656372
ssg2672
I117
sg2673
(lp2788
g2675
ag2676
ag2677
asg24
I63696
sg2678
g2679
sg2680
S'dend[115]'
p2789
sg25
I68312
ssg2680
S'dend[115]'
p2790
ssI15
(dp2791
g24
I65761
sg2656
F1e-07
sg4
(dp2792
g2661
I0
sg2662
I15
sg2663
Nsg2664
I175248
sg2665
I1500100
sg2656
F1e-07
sg2666
(dp2793
g2668
F664.0
sg2669
F15.0
sg2670
F0.2082063249223371
sg2671
F1.6628414392471313
ssg2672
I117
sg2673
(lp2794
g2675
ag2676
ag2677
asg24
I65761
sg2678
g2679
sg2680
S'soma[0]'
p2795
sg25
I68312
ssg2680
S'soma[0]'
p2796
ssI16
(dp2797
g24
I65761
sg2656
F1e-07
sg4
(dp2798
g2661
I0
sg2662
I16
sg2663
Nsg2664
I175248
sg2665
I1600100
sg2656
F1e-07
sg2666
(dp2799
g2668
F664.0
sg2669
F15.0
sg2670
F0.20845972742523566
sg2671
F1.6682243347167969
ssg2672
I117
sg2673
(lp2800
g2675
ag2676
ag2677
asg24
I65761
sg2678
g2679
sg2680
S'soma[0]'
p2801
sg25
I68312
ssg2680
S'soma[0]'
p2802
ssI17
(dp2803
g24
I65761
sg2656
F1e-07
sg4
(dp2804
g2661
I0
sg2662
I17
sg2663
Nsg2664
I175248
sg2665
I1700100
sg2656
F1e-07
sg2666
(dp2805
g2668
F659.0
sg2669
F13.0
sg2670
F0.20586702675566135
sg2671
F1.6131486892700195
ssg2672
I117
sg2673
(lp2806
g2675
ag2676
ag2677
asg24
I65761
sg2678
g2679
sg2680
S'soma[0]'
p2807
sg25
I68312
ssg2680
S'soma[0]'
p2808
ssI18
(dp2809
g24
I65761
sg2656
g10
(g14
S'\xd1\xa8\xab\x8dQ\x05\xd5?'
p2810
tp2811
Rp2812
sg4
(dp2813
g2661
I361
sg2662
I18
sg2663
Nsg2664
I175248
sg2665
I1800100
sg2656
g2812
sg2666
(dp2814
g2668
F679.0
sg2669
F19.0
sg2670
F0.21569546802534306
sg2671
F1.8219304084777832
ssg2672
I117
sg2673
(lp2815
g2675
ag2676
ag2677
asg24
I65761
sg2678
g2679
sg2680
S'dend[91]'
p2816
sg25
I68312
ssg2680
S'dend[91]'
p2817
ssI19
(dp2818
g24
I66577
sg2656
F1e-07
sg4
(dp2819
g2661
I0
sg2662
I19
sg2663
Nsg2664
I175248
sg2665
I1900100
sg2656
F1e-07
sg2666
(dp2820
g2668
F673.0
sg2669
F18.0
sg2670
F0.21270549778834147
sg2671
F1.7584152221679688
ssg2672
I117
sg2673
(lp2821
g2675
ag2676
ag2677
asg24
I66577
sg2678
g2679
sg2680
S'soma[0]'
p2822
sg25
I68312
ssg2680
S'soma[0]'
p2823
ssI20
(dp2824
g24
I66577
sg2656
g10
(g14
S'_\tE\xa9\xb5\xe4\xda?'
p2825
tp2826
Rp2827
sg4
(dp2828
g2661
I332
sg2662
I20
sg2663
Nsg2664
I175248
sg2665
I2000100
sg2656
g2827
sg2666
(dp2829
g2668
F666.0
sg2669
F15.0
sg2670
F0.2091515115863203
sg2671
F1.6829196214675903
ssg2672
I117
sg2673
(lp2830
g2675
ag2676
ag2677
asg24
I66577
sg2678
g2679
sg2680
S'dend[62]'
p2831
sg25
I68312
ssg2680
S'dend[62]'
p2832
ssI21
(dp2833
g24
I66577
sg2656
F1e-07
sg4
(dp2834
g2661
I0
sg2662
I21
sg2663
Nsg2664
I175248
sg2665
I2100100
sg2656
F1e-07
sg2666
(dp2835
g2668
F659.0
sg2669
F13.0
sg2670
F0.2058067475415083
sg2671
F1.6118682622909546
ssg2672
I117
sg2673
(lp2836
g2675
ag2676
ag2677
asg24
I66577
sg2678
g2679
sg2680
S'soma[0]'
p2837
sg25
I68312
ssg2680
S'soma[0]'
p2838
ssI22
(dp2839
g24
I66577
sg2656
F1e-07
sg4
(dp2840
g2661
I0
sg2662
I22
sg2663
Nsg2664
I175248
sg2665
I2200100
sg2656
F1e-07
sg2666
(dp2841
g2668
F667.0
sg2669
F16.0
sg2670
F0.20981929265018984
sg2671
F1.697105050086975
ssg2672
I117
sg2673
(lp2842
g2675
ag2676
ag2677
asg24
I66577
sg2678
g2679
sg2680
S'soma[0]'
p2843
sg25
I68312
ssg2680
S'soma[0]'
p2844
ssI23
(dp2845
g24
I66577
sg2656
F1e-07
sg4
(dp2846
g2661
I0
sg2662
I23
sg2663
Nsg2664
I175248
sg2665
I2300100
sg2656
F1e-07
sg2666
(dp2847
g2668
F682.0
sg2669
F20.0
sg2670
F0.21756841669567836
sg2671
F1.861716628074646
ssg2672
I117
sg2673
(lp2848
g2675
ag2676
ag2677
asg24
I66577
sg2678
g2679
sg2680
S'soma[0]'
p2849
sg25
I68312
ssg2680
S'soma[0]'
p2850
ssI24
(dp2851
g24
I66577
sg2656
F1e-07
sg4
(dp2852
g2661
I0
sg2662
I24
sg2663
Nsg2664
I175248
sg2665
I2400100
sg2656
F1e-07
sg2666
(dp2853
g2668
F659.0
sg2669
F14.0
sg2670
F0.20609650192072582
sg2671
F1.61802339553833
ssg2672
I117
sg2673
(lp2854
g2675
ag2676
ag2677
asg24
I66577
sg2678
g2679
sg2680
S'soma[0]'
p2855
sg25
I68312
ssg2680
S'soma[0]'
p2856
ssI25
(dp2857
g24
I66707
sg2656
F1e-07
sg4
(dp2858
g2661
I0
sg2662
I25
sg2663
Nsg2664
I175248
sg2665
I2500100
sg2656
F1e-07
sg2666
(dp2859
g2668
F670.0
sg2669
F17.0
sg2670
F0.21133744751271472
sg2671
F1.7293545007705688
ssg2672
I117
sg2673
(lp2860
g2675
ag2676
ag2677
asg24
I66707
sg2678
g2679
sg2680
S'soma[0]'
p2861
sg25
I68312
ssg2680
S'soma[0]'
p2862
ssI26
(dp2863
g24
I66707
sg2656
F1e-07
sg4
(dp2864
g2661
I0
sg2662
I26
sg2663
Nsg2664
I175248
sg2665
I2600100
sg2656
F1e-07
sg2666
(dp2865
g2668
F663.0
sg2669
F15.0
sg2670
F0.2076072197373487
sg2671
F1.6501147747039795
ssg2672
I117
sg2673
(lp2866
g2675
ag2676
ag2677
asg24
I66707
sg2678
g2679
sg2680
S'soma[0]'
p2867
sg25
I68312
ssg2680
S'soma[0]'
p2868
ssI27
(dp2869
g24
I66707
sg2656
g10
(g14
S'.\x07\x9d\x80Lg\xc1?'
p2870
tp2871
Rp2872
sg4
(dp2873
g2661
I323
sg2662
I27
sg2663
Nsg2664
I175248
sg2665
I2700100
sg2656
g2872
sg2666
(dp2874
g2668
F655.0
sg2669
F12.0
sg2670
F0.20390305318904842
sg2671
F1.5714287757873535
ssg2672
I117
sg2673
(lp2875
g2675
ag2676
ag2677
asg24
I66707
sg2678
g2679
sg2680
S'dend[53]'
p2876
sg25
I68312
ssg2680
S'dend[53]'
p2877
ssI28
(dp2878
g24
I66707
sg2656
g10
(g14
S'\xc6\xafg\xd8!\xef\xe9?'
p2879
tp2880
Rp2881
sg4
(dp2882
g2661
I348
sg2662
I28
sg2663
Nsg2664
I175248
sg2665
I2800100
sg2656
g2881
sg2666
(dp2883
g2668
F663.0
sg2669
F15.0
sg2670
F0.2077571601789213
sg2671
F1.6533000469207764
ssg2672
I117
sg2673
(lp2884
g2675
ag2676
ag2677
asg24
I66707
sg2678
g2679
sg2680
S'dend[78]'
p2885
sg25
I68312
ssg2680
S'dend[78]'
p2886
ssI29
(dp2887
g24
I67067
sg2656
g10
(g14
S'X=p\xc06!\xe9?'
p2888
tp2889
Rp2890
sg4
(dp2891
g2661
I378
sg2662
I29
sg2663
Nsg2664
I175248
sg2665
I2900100
sg2656
g2890
sg2666
(dp2892
g2668
F363.0
sg2669
F13.0
sg2670
F0.05920743987670353
sS'tau_d_GABAA'
p2893
F6.434173107147217
sS'tau_r_GABAA'
p2894
F0.15241188136079434
ssg2672
I1
sg2673
(lp2895
S'%s.e_GABAA = -80.0 %s.e_GABAB = -75.8354310081'
p2896
aS'%s.Use *= 0.423677166383'
p2897
asg24
I67067
sg2678
S'ProbGABAAB_EMS'
p2898
sg2680
S'dend[108]'
p2899
sg25
I68312
ssg2680
S'dend[108]'
p2900
ssI30
(dp2901
g24
I67067
sg2656
g10
(g14
S'L\xfe\x08\xe92\x92\xbb?'
p2902
tp2903
Rp2904
sg4
(dp2905
g2661
I368
sg2662
I30
sg2663
Nsg2664
I175248
sg2665
I3000100
sg2656
g2904
sg2666
(dp2906
g2668
F667.0
sg2669
F20.0
sg2670
F0.10057381068453757
sg2893
F8.0864839553833
sg2894
F0.25130708738527757
ssg2672
I1
sg2673
(lp2907
g2896
ag2897
asg24
I67067
sg2678
g2898
sg2680
S'dend[98]'
p2908
sg25
I68312
ssg2680
S'dend[98]'
p2909
ssI31
(dp2910
g24
I67067
sg2656
g10
(g14
S'N\x1f\rF\xfc&\xc6?'
p2911
tp2912
Rp2913
sg4
(dp2914
g2661
I365
sg2662
I31
sg2663
Nsg2664
I175248
sg2665
I3100100
sg2656
g2913
sg2666
(dp2915
g2668
F571.0
sg2669
F18.0
sg2670
F0.08752166886088998
sg2893
F7.5651373863220215
sg2894
F1.9068372222148062
ssg2672
I1
sg2673
(lp2916
g2896
ag2897
asg24
I67067
sg2678
g2898
sg2680
S'dend[95]'
p2917
sg25
I68312
ssg2680
S'dend[95]'
p2918
ssI32
(dp2919
g24
I67067
sg2656
g10
(g14
S'\x88z\xda\xe3\x88\x19\xed?'
p2920
tp2921
Rp2922
sg4
(dp2923
g2661
I375
sg2662
I32
sg2663
Nsg2664
I175248
sg2665
I3200100
sg2656
g2922
sg2666
(dp2924
g2668
F1028.0
sg2669
F28.0
sg2670
F0.14969369326867665
sg2893
F10.048495292663574
sg2894
F0.04505527969850425
ssg2672
I1
sg2673
(lp2925
g2896
ag2897
asg24
I67067
sg2678
g2898
sg2680
S'dend[105]'
p2926
sg25
I68312
ssg2680
S'dend[105]'
p2927
ssI33
(dp2928
g24
I67067
sg2656
g10
(g14
S'SR4m~~\xed?'
p2929
tp2930
Rp2931
sg4
(dp2932
g2661
I305
sg2662
I33
sg2663
Nsg2664
I175248
sg2665
I3300100
sg2656
g2931
sg2666
(dp2933
g2668
F543.0
sg2669
F17.0
sg2670
F0.08380980642213594
sg2893
F7.416873455047607
sg2894
F0.11383080353164386
ssg2672
I1
sg2673
(lp2934
g2896
ag2897
asg24
I67067
sg2678
g2898
sg2680
S'dend[35]'
p2935
sg25
I68312
ssg2680
S'dend[35]'
p2936
ssI34
(dp2937
g24
I67067
sg2656
g10
(g14
S'G\x8b\x84m\x88\xee\xea?'
p2938
tp2939
Rp2940
sg4
(dp2941
g2661
I375
sg2662
I34
sg2663
Nsg2664
I175248
sg2665
I3400100
sg2656
g2940
sg2666
(dp2942
g2668
F425.0
sg2669
F15.0
sg2670
F0.0677166325386893
sg2893
F6.774058818817139
sg2894
F0.08076627855083636
ssg2672
I1
sg2673
(lp2943
g2896
ag2897
asg24
I67067
sg2678
g2898
sg2680
S'dend[105]'
p2944
sg25
I68312
ssg2680
S'dend[105]'
p2945
ssI35
(dp2946
g24
I67067
sg2656
g10
(g14
S'\xb7~t\x92\x92\xa1\xea?'
p2947
tp2948
Rp2949
sg4
(dp2950
g2661
I375
sg2662
I35
sg2663
Nsg2664
I175248
sg2665
I3500100
sg2656
g2949
sg2666
(dp2951
g2668
F471.0
sg2669
F16.0
sg2670
F0.07397853048894829
sg2893
F7.024179458618164
sg2894
F0.018123014484843263
ssg2672
I1
sg2673
(lp2952
g2896
ag2897
asg24
I67067
sg2678
g2898
sg2680
S'dend[105]'
p2953
sg25
I68312
ssg2680
S'dend[105]'
p2954
ssI36
(dp2955
g24
I67067
sg2656
g10
(g14
S'%-Up\x1e\x01\xe1?'
p2956
tp2957
Rp2958
sg4
(dp2959
g2661
I385
sg2662
I36
sg2663
Nsg2664
I175248
sg2665
I3600100
sg2656
g2958
sg2666
(dp2960
g2668
F596.0
sg2669
F19.0
sg2670
F0.09096961086934921
sg2893
F7.702859878540039
sg2894
F0.6056906962708991
ssg2672
I1
sg2673
(lp2961
g2896
ag2897
asg24
I67067
sg2678
g2898
sg2680
S'dend[115]'
p2962
sg25
I68312
ssg2680
S'dend[115]'
p2963
ssI37
(dp2964
g24
I67067
sg2656
g10
(g14
S'\xb8l9eB\t\xeb?'
p2965
tp2966
Rp2967
sg4
(dp2968
g2661
I332
sg2662
I37
sg2663
Nsg2664
I175248
sg2665
I3700100
sg2656
g2967
sg2666
(dp2969
g2668
F627.0
sg2669
F19.0
sg2670
F0.09511212119614504
sg2893
F7.868325710296631
sg2894
F0.08271876313043365
ssg2672
I1
sg2673
(lp2970
g2896
ag2897
asg24
I67067
sg2678
g2898
sg2680
S'dend[62]'
p2971
sg25
I68312
ssg2680
S'dend[62]'
p2972
ssI38
(dp2973
g24
I67067
sg2656
g10
(g14
S'\xc6\x86\xfag[\xb0\xde?'
p2974
tp2975
Rp2976
sg4
(dp2977
g2661
I375
sg2662
I38
sg2663
Nsg2664
I175248
sg2665
I3800100
sg2656
g2976
sg2666
(dp2978
g2668
F699.0
sg2669
F21.0
sg2670
F0.10490570683728266
sg2893
F8.259513854980469
sg2894
F0.05295135111437958
ssg2672
I1
sg2673
(lp2979
g2896
ag2897
asg24
I67067
sg2678
g2898
sg2680
S'dend[105]'
p2980
sg25
I68312
ssg2680
S'dend[105]'
p2981
ssI39
(dp2982
g24
I67067
sg2656
F1e-07
sg4
(dp2983
g2661
I0
sg2662
I39
sg2663
Nsg2664
I175248
sg2665
I3900100
sg2656
F1e-07
sg2666
(dp2984
g2668
F1035.0
sg2669
F28.0
sg2670
F0.15072239202365453
sg2893
F10.089585304260254
sg2894
F0.19330059264685087
ssg2672
I1
sg2673
(lp2985
g2896
ag2897
asg24
I67067
sg2678
g2898
sg2680
S'soma[0]'
p2986
sg25
I68312
ssg2680
S'soma[0]'
p2987
ssI40
(dp2988
g24
I67067
sg2656
g10
(g14
S'\xcb\xce\xa0@@\xdd\xdb?'
p2989
tp2990
Rp2991
sg4
(dp2992
g2661
I383
sg2662
I40
sg2663
Nsg2664
I175248
sg2665
I4000100
sg2656
g2991
sg2666
(dp2993
g2668
F638.0
sg2669
F19.0
sg2670
F0.09670245580892252
sg2893
F7.931849002838135
sg2894
F0.1599531916156123
ssg2672
I1
sg2673
(lp2994
g2896
ag2897
asg24
I67067
sg2678
g2898
sg2680
S'dend[113]'
p2995
sg25
I68312
ssg2680
S'dend[113]'
p2996
ssI41
(dp2997
g24
I67067
sg2656
g10
(g14
S'\xcbC\xe9\xe2m!\xd9?'
p2998
tp2999
Rp3000
sg4
(dp3001
g2661
I383
sg2662
I41
sg2663
Nsg2664
I175248
sg2665
I4100100
sg2656
g3000
sg2666
(dp3002
g2668
F866.0
sg2669
F25.0
sg2670
F0.127719760567526
sg2893
F9.170783042907715
sg2894
F0.24387439403258296
ssg2672
I1
sg2673
(lp3003
g2896
ag2897
asg24
I67067
sg2678
g2898
sg2680
S'dend[113]'
p3004
sg25
I68312
ssg2680
S'dend[113]'
p3005
ssI42
(dp3006
g24
I67108
sg2656
g10
(g14
S'\xf3\xd1\xca\x0c\xd7\xd2\xad?'
p3007
tp3008
Rp3009
sg4
(dp3010
g2661
I365
sg2662
I42
sg2663
Nsg2664
I175248
sg2665
I4200100
sg2656
g3009
sg2666
(dp3011
g2668
F660.0
sg2669
F14.0
sg2670
F0.20630934790165967
sg2671
F1.6225446462631226
ssg2672
I117
sg2673
(lp3012
g2675
ag2676
ag2677
asg24
I67108
sg2678
g2679
sg2680
S'dend[95]'
p3013
sg25
I68312
ssg2680
S'dend[95]'
p3014
ssI43
(dp3015
g24
I67108
sg2656
g10
(g14
S'V\x0c\x18\xd0\xb1\x80\xac?'
p3016
tp3017
Rp3018
sg4
(dp3019
g2661
I365
sg2662
I43
sg2663
Nsg2664
I175248
sg2665
I4300100
sg2656
g3018
sg2666
(dp3020
g2668
F679.0
sg2669
F19.0
sg2670
F0.21599805099307748
sg2671
F1.8283581733703613
ssg2672
I117
sg2673
(lp3021
g2675
ag2676
ag2677
asg24
I67108
sg2678
g2679
sg2680
S'dend[95]'
p3022
sg25
I68312
ssg2680
S'dend[95]'
p3023
ssI44
(dp3024
g24
I67108
sg2656
g10
(g14
S'\xe3\xed\xc9\x18\x8eC\xae?'
p3025
tp3026
Rp3027
sg4
(dp3028
g2661
I365
sg2662
I44
sg2663
Nsg2664
I175248
sg2665
I4400100
sg2656
g3027
sg2666
(dp3029
g2668
F655.0
sg2669
F12.0
sg2670
F0.20377725473688943
sg2671
F1.5687564611434937
ssg2672
I117
sg2673
(lp3030
g2675
ag2676
ag2677
asg24
I67108
sg2678
g2679
sg2680
S'dend[95]'
p3031
sg25
I68312
ssg2680
S'dend[95]'
p3032
ssI45
(dp3033
g24
I67108
sg2656
g10
(g14
S'\xd6btg\x88\x89\xe0?'
p3034
tp3035
Rp3036
sg4
(dp3037
g2661
I287
sg2662
I45
sg2663
Nsg2664
I175248
sg2665
I4500100
sg2656
g3036
sg2666
(dp3038
g2668
F674.0
sg2669
F18.0
sg2670
F0.21326482929830218
sg2671
F1.7702972888946533
ssg2672
I117
sg2673
(lp3039
g2675
ag2676
ag2677
asg24
I67108
sg2678
g2679
sg2680
S'dend[17]'
p3040
sg25
I68312
ssg2680
S'dend[17]'
p3041
ssI46
(dp3042
g24
I68192
sg2656
F1e-07
sg4
(dp3043
g2661
I0
sg2662
I46
sg2663
Nsg2664
I175248
sg2665
I4600100
sg2656
F1e-07
sg2666
(dp3044
g2668
F665.0
sg2669
F15.0
sg2670
F0.20897433564727638
sg2671
F1.6791560649871826
ssg2672
I117
sg2673
(lp3045
g2675
ag2676
ag2677
asg24
I68192
sg2678
g2679
sg2680
S'soma[0]'
p3046
sg25
I68312
ssg2680
S'soma[0]'
p3047
ssI47
(dp3048
g24
I68192
sg2656
F1e-07
sg4
(dp3049
g2661
I0
sg2662
I47
sg2663
Nsg2664
I175248
sg2665
I4700100
sg2656
F1e-07
sg2666
(dp3050
g2668
F665.0
sg2669
F15.0
sg2670
F0.20894764309203556
sg2671
F1.6785888671875
ssg2672
I117
sg2673
(lp3051
g2675
ag2676
ag2677
asg24
I68192
sg2678
g2679
sg2680
S'soma[0]'
p3052
sg25
I68312
ssg2680
S'soma[0]'
p3053
ssI48
(dp3054
g24
I68192
sg2656
F1e-07
sg4
(dp3055
g2661
I0
sg2662
I48
sg2663
Nsg2664
I175248
sg2665
I4800100
sg2656
F1e-07
sg2666
(dp3056
g2668
F686.0
sg2669
F21.0
sg2670
F0.21942222349574636
sg2671
F1.9010961055755615
ssg2672
I117
sg2673
(lp3057
g2675
ag2676
ag2677
asg24
I68192
sg2678
g2679
sg2680
S'soma[0]'
p3058
sg25
I68312
ssg2680
S'soma[0]'
p3059
ssI49
(dp3060
g24
I68399
sg2656
g10
(g14
S'\xd3\xf4\xf0\xf8\xd1\xb0\xd9?'
p3061
tp3062
Rp3063
sg4
(dp3064
g2661
I270
sg2662
I49
sg2663
Nsg2664
I175248
sg2665
I4900100
sg2656
g3063
sg2666
(dp3065
g2668
F1059.0
sg2669
F29.0
sg2670
F0.15394508245254032
sg2893
F10.218310356140137
sg2894
F0.07274599236644726
ssg2672
I1
sg2673
(lp3066
g2896
ag2897
asg24
I68399
sg2678
g2898
sg2680
S'dend[0]'
p3067
sg25
I68312
ssg2680
S'dend[0]'
p3068
ssI50
(dp3069
g24
I68399
sg2656
F1e-07
sg4
(dp3070
g2661
I0
sg2662
I50
sg2663
Nsg2664
I175248
sg2665
I5000100
sg2656
F1e-07
sg2666
(dp3071
g2668
F880.0
sg2669
F25.0
sg2670
F0.12962781108439364
sg2893
F9.246996879577637
sg2894
F0.0673145295572255
ssg2672
I1
sg2673
(lp3072
g2896
ag2897
asg24
I68399
sg2678
g2898
sg2680
S'soma[0]'
p3073
sg25
I68312
ssg2680
S'soma[0]'
p3074
ssI51
(dp3075
g24
I68399
sg2656
F1e-07
sg4
(dp3076
g2661
I0
sg2662
I51
sg2663
Nsg2664
I175248
sg2665
I5100100
sg2656
F1e-07
sg2666
(dp3077
g2668
F844.0
sg2669
F24.0
sg2670
F0.12466459938316947
sg2893
F9.048749923706055
sg2894
F0.22406445793763358
ssg2672
I1
sg2673
(lp3078
g2896
ag2897
asg24
I68399
sg2678
g2898
sg2680
S'soma[0]'
p3079
sg25
I68312
ssg2680
S'soma[0]'
p3080
ssI52
(dp3081
g24
I68399
sg2656
g10
(g14
S'\xae\x86\xfdS>\x03\xe8?'
p3082
tp3083
Rp3084
sg4
(dp3085
g2661
I366
sg2662
I52
sg2663
Nsg2664
I175248
sg2665
I5200100
sg2656
g3084
sg2666
(dp3086
g2668
F891.0
sg2669
F25.0
sg2670
F0.13104894343297796
sg2893
F9.30376148223877
sg2894
F0.46335433307900115
ssg2672
I1
sg2673
(lp3087
g2896
ag2897
asg24
I68399
sg2678
g2898
sg2680
S'dend[96]'
p3088
sg25
I68312
ssg2680
S'dend[96]'
p3089
ssI53
(dp3090
g24
I68399
sg2656
g10
(g14
S'~|\xc3\xdf\x03\xfd\xe7?'
p3091
tp3092
Rp3093
sg4
(dp3094
g2661
I366
sg2662
I53
sg2663
Nsg2664
I175248
sg2665
I5300100
sg2656
g3093
sg2666
(dp3095
g2668
F540.0
sg2669
F17.0
sg2670
F0.08334265513901319
sg2893
F7.398213863372803
sg2894
F0.025368023317251406
ssg2672
I1
sg2673
(lp3096
g2896
ag2897
asg24
I68399
sg2678
g2898
sg2680
S'dend[96]'
p3097
sg25
I68312
ssg2680
S'dend[96]'
p3098
ssI54
(dp3099
g24
I68399
sg2656
g10
(g14
S'~|\xc3\xdf\x03\xfd\xe7?'
p3100
tp3101
Rp3102
sg4
(dp3103
g2661
I366
sg2662
I54
sg2663
Nsg2664
I175248
sg2665
I5400100
sg2656
g3102
sg2666
(dp3104
g2668
F819.0
sg2669
F24.0
sg2670
F0.1212644804839697
sg2893
F8.912938117980957
sg2894
F0.5512626508418973
ssg2672
I1
sg2673
(lp3105
g2896
ag2897
asg24
I68399
sg2678
g2898
sg2680
S'dend[96]'
p3106
sg25
I68312
ssg2680
S'dend[96]'
p3107
ssI55
(dp3108
g24
I68482
sg2656
F1e-07
sg4
(dp3109
g2661
I0
sg2662
I55
sg2663
Nsg2664
I175248
sg2665
I5500100
sg2656
F1e-07
sg2666
(dp3110
g2668
F673.0
sg2669
F18.0
sg2670
F0.2127668881400826
sg2671
F1.7597196102142334
ssg2672
I117
sg2673
(lp3111
g2675
ag2676
ag2677
asg24
I68482
sg2678
g2679
sg2680
S'soma[0]'
p3112
sg25
I68312
ssg2680
S'soma[0]'
p3113
ssI56
(dp3114
g24
I68482
sg2656
F1e-07
sg4
(dp3115
g2661
I0
sg2662
I56
sg2663
Nsg2664
I175248
sg2665
I5600100
sg2656
F1e-07
sg2666
(dp3116
g2668
F674.0
sg2669
F18.0
sg2670
F0.2131392960039767
sg2671
F1.7676302194595337
ssg2672
I117
sg2673
(lp3117
g2675
ag2676
ag2677
asg24
I68482
sg2678
g2679
sg2680
S'soma[0]'
p3118
sg25
I68312
ssg2680
S'soma[0]'
p3119
ssI57
(dp3120
g24
I68482
sg2656
F1e-07
sg4
(dp3121
g2661
I0
sg2662
I57
sg2663
Nsg2664
I175248
sg2665
I5700100
sg2656
F1e-07
sg2666
(dp3122
g2668
F680.0
sg2669
F20.0
sg2670
F0.2161599740434124
sg2671
F1.8317975997924805
ssg2672
I117
sg2673
(lp3123
g2675
ag2676
ag2677
asg24
I68482
sg2678
g2679
sg2680
S'soma[0]'
p3124
sg25
I68312
ssg2680
S'soma[0]'
p3125
ssI58
(dp3126
g24
I68482
sg2656
g10
(g14
S'\xf9\xf6\x1a\xc5\x9a\xef\xe7?'
p3127
tp3128
Rp3129
sg4
(dp3130
g2661
I344
sg2662
I58
sg2663
Nsg2664
I175248
sg2665
I5800100
sg2656
g3129
sg2666
(dp3131
g2668
F663.0
sg2669
F15.0
sg2670
F0.20770861104226052
sg2671
F1.6522685289382935
ssg2672
I117
sg2673
(lp3132
g2675
ag2676
ag2677
asg24
I68482
sg2678
g2679
sg2680
S'dend[74]'
p3133
sg25
I68312
ssg2680
S'dend[74]'
p3134
ssI59
(dp3135
g24
I68482
sg2656
g10
(g14
S'\xf7]*\t\xa4\x14\xe0?'
p3136
tp3137
Rp3138
sg4
(dp3139
g2661
I367
sg2662
I59
sg2663
Nsg2664
I175248
sg2665
I5900100
sg2656
g3138
sg2666
(dp3140
g2668
F664.0
sg2669
F15.0
sg2670
F0.20810899937087252
sg2671
F1.6607741117477417
ssg2672
I117
sg2673
(lp3141
g2675
ag2676
ag2677
asg24
I68482
sg2678
g2679
sg2680
S'dend[97]'
p3142
sg25
I68312
ssg2680
S'dend[97]'
p3143
ssI60
(dp3144
g24
I68680
sg2656
g10
(g14
S'\xa8\xdd\x97\x81\r\xd2\xeb?'
p3145
tp3146
Rp3147
sg4
(dp3148
g2661
I291
sg2662
I60
sg2663
Nsg2664
I175248
sg2665
I6000100
sg2656
g3147
sg2666
(dp3149
g2668
F680.0
sg2669
F20.0
sg2670
F0.21630209864217798
sg2671
F1.834816813468933
ssg2672
I117
sg2673
(lp3150
g2675
ag2676
ag2677
asg24
I68680
sg2678
g2679
sg2680
S'dend[21]'
p3151
sg25
I68312
ssg2680
S'dend[21]'
p3152
ssI61
(dp3153
g24
I68680
sg2656
g10
(g14
S'\xe1j;\xe1\x11A\xe7?'
p3154
tp3155
Rp3156
sg4
(dp3157
g2661
I291
sg2662
I61
sg2663
Nsg2664
I175248
sg2665
I6100100
sg2656
g3156
sg2666
(dp3158
g2668
F657.0
sg2669
F13.0
sg2670
F0.20490992061573332
sg2671
F1.5928173065185547
ssg2672
I117
sg2673
(lp3159
g2675
ag2676
ag2677
asg24
I68680
sg2678
g2679
sg2680
S'dend[21]'
p3160
sg25
I68312
ssg2680
S'dend[21]'
p3161
ssI62
(dp3162
g24
I68680
sg2656
g10
(g14
S'RNNe,\xb9\xe1?'
p3163
tp3164
Rp3165
sg4
(dp3166
g2661
I317
sg2662
I62
sg2663
Nsg2664
I175248
sg2665
I6200100
sg2656
g3165
sg2666
(dp3167
g2668
F658.0
sg2669
F13.0
sg2670
F0.20534899673491191
sg2671
F1.6021443605422974
ssg2672
I117
sg2673
(lp3168
g2675
ag2676
ag2677
asg24
I68680
sg2678
g2679
sg2680
S'dend[47]'
p3169
sg25
I68312
ssg2680
S'dend[47]'
p3170
ssI63
(dp3171
g24
I68680
sg2656
g10
(g14
S'\x99\xf2&\x0e\xc2l\xdd?'
p3172
tp3173
Rp3174
sg4
(dp3175
g2661
I291
sg2662
I63
sg2663
Nsg2664
I175248
sg2665
I6300100
sg2656
g3174
sg2666
(dp3176
g2668
F673.0
sg2669
F18.0
sg2670
F0.21297189302508243
sg2671
F1.764074444770813
ssg2672
I117
sg2673
(lp3177
g2675
ag2676
ag2677
asg24
I68680
sg2678
g2679
sg2680
S'dend[21]'
p3178
sg25
I68312
ssg2680
S'dend[21]'
p3179
ssI64
(dp3180
g24
I68761
sg2656
F1e-07
sg4
(dp3181
g2661
I0
sg2662
I64
sg2663
Nsg2664
I175248
sg2665
I6400100
sg2656
F1e-07
sg2666
(dp3182
g2668
F676.0
sg2669
F18.0
sg2670
F0.21430987945301364
sg2671
F1.792496919631958
ssg2672
I117
sg2673
(lp3183
g2675
ag2676
ag2677
asg24
I68761
sg2678
g2679
sg2680
S'soma[0]'
p3184
sg25
I68312
ssg2680
S'soma[0]'
p3185
ssI65
(dp3186
g24
I68761
sg2656
F1e-07
sg4
(dp3187
g2661
I0
sg2662
I65
sg2663
Nsg2664
I175248
sg2665
I6500100
sg2656
F1e-07
sg2666
(dp3188
g2668
F682.0
sg2669
F20.0
sg2670
F0.21716517476371516
sg2671
F1.853150486946106
ssg2672
I117
sg2673
(lp3189
g2675
ag2676
ag2677
asg24
I68761
sg2678
g2679
sg2680
S'soma[0]'
p3190
sg25
I68312
ssg2680
S'soma[0]'
p3191
ssI66
(dp3192
g24
I68761
sg2656
F1e-07
sg4
(dp3193
g2661
I0
sg2662
I66
sg2663
Nsg2664
I175248
sg2665
I6600100
sg2656
F1e-07
sg2666
(dp3194
g2668
F669.0
sg2669
F16.0
sg2670
F0.21088751254892538
sg2671
F1.7197967767715454
ssg2672
I117
sg2673
(lp3195
g2675
ag2676
ag2677
asg24
I68761
sg2678
g2679
sg2680
S'soma[0]'
p3196
sg25
I68312
ssg2680
S'soma[0]'
p3197
ssI67
(dp3198
g24
I68761
sg2656
F1e-07
sg4
(dp3199
g2661
I0
sg2662
I67
sg2663
Nsg2664
I175248
sg2665
I6700100
sg2656
F1e-07
sg2666
(dp3200
g2668
F666.0
sg2669
F16.0
sg2670
F0.20939694672764986
sg2671
F1.6881332397460938
ssg2672
I117
sg2673
(lp3201
g2675
ag2676
ag2677
asg24
I68761
sg2678
g2679
sg2680
S'soma[0]'
p3202
sg25
I68312
ssg2680
S'soma[0]'
p3203
ssI68
(dp3204
g24
I68761
sg2656
F1e-07
sg4
(dp3205
g2661
I0
sg2662
I68
sg2663
Nsg2664
I175248
sg2665
I6800100
sg2656
F1e-07
sg2666
(dp3206
g2668
F671.0
sg2669
F17.0
sg2670
F0.21178320308398527
sg2671
F1.738823652267456
ssg2672
I117
sg2673
(lp3207
g2675
ag2676
ag2677
asg24
I68761
sg2678
g2679
sg2680
S'soma[0]'
p3208
sg25
I68312
ssg2680
S'soma[0]'
p3209
ssI69
(dp3210
g24
I68848
sg2656
g10
(g14
S'\xeb\xdcGl\x1e\x96\xdd?'
p3211
tp3212
Rp3213
sg4
(dp3214
g2661
I340
sg2662
I69
sg2663
Nsg2664
I175248
sg2665
I6900100
sg2656
g3213
sg2666
(dp3215
g2668
F671.0
sg2669
F17.0
sg2670
F0.21171363071909557
sg2671
F1.7373456954956055
ssg2672
I117
sg2673
(lp3216
g2675
ag2676
ag2677
asg24
I68848
sg2678
g2679
sg2680
S'dend[70]'
p3217
sg25
I68312
ssg2680
S'dend[70]'
p3218
ssI70
(dp3219
g24
I68848
sg2656
g10
(g14
S'r\xe9|3\x04\xe0\xe8?'
p3220
tp3221
Rp3222
sg4
(dp3223
g2661
I311
sg2662
I70
sg2663
Nsg2664
I175248
sg2665
I7000100
sg2656
g3222
sg2666
(dp3224
g2668
F677.0
sg2669
F19.0
sg2670
F0.2147541324632276
sg2671
F1.8019335269927979
ssg2672
I117
sg2673
(lp3225
g2675
ag2676
ag2677
asg24
I68848
sg2678
g2679
sg2680
S'dend[41]'
p3226
sg25
I68312
ssg2680
S'dend[41]'
p3227
ssI71
(dp3228
g24
I68848
sg2656
g10
(g14
S':\xfe\xd2\xee\x02\xa0\xb9?'
p3229
tp3230
Rp3231
sg4
(dp3232
g2661
I351
sg2662
I71
sg2663
Nsg2664
I175248
sg2665
I7100100
sg2656
g3231
sg2666
(dp3233
g2668
F671.0
sg2669
F17.0
sg2670
F0.21199661726027666
sg2671
F1.7433569431304932
ssg2672
I117
sg2673
(lp3234
g2675
ag2676
ag2677
asg24
I68848
sg2678
g2679
sg2680
S'dend[81]'
p3235
sg25
I68312
ssg2680
S'dend[81]'
p3236
ssI72
(dp3237
g24
I68848
sg2656
g10
(g14
S'b<\xbf*\x95\x8f\xcb?'
p3238
tp3239
Rp3240
sg4
(dp3241
g2661
I380
sg2662
I72
sg2663
Nsg2664
I175248
sg2665
I7200100
sg2656
g3240
sg2666
(dp3242
g2668
F685.0
sg2669
F21.0
sg2670
F0.21858291056671778
sg2671
F1.8832670450210571
ssg2672
I117
sg2673
(lp3243
g2675
ag2676
ag2677
asg24
I68848
sg2678
g2679
sg2680
S'dend[110]'
p3244
sg25
I68312
ssg2680
S'dend[110]'
p3245
ssI73
(dp3246
g24
I69444
sg2656
g10
(g14
S'?\x1f\x12\x94}%\xc9?'
p3247
tp3248
Rp3249
sg4
(dp3250
g2661
I375
sg2662
I73
sg2663
Nsg2664
I175248
sg2665
I7300100
sg2656
g3249
sg2666
(dp3251
g2668
F679.0
sg2669
F19.0
sg2670
F0.21571617558948447
sg2671
F1.8223700523376465
ssg2672
I117
sg2673
(lp3252
g2675
ag2676
ag2677
asg24
I69444
sg2678
g2679
sg2680
S'dend[105]'
p3253
sg25
I68312
ssg2680
S'dend[105]'
p3254
ssI74
(dp3255
g24
I69444
sg2656
g10
(g14
S'\xc8\xa8\x8d\x82\xb7\x04\xc9?'
p3256
tp3257
Rp3258
sg4
(dp3259
g2661
I375
sg2662
I74
sg2663
Nsg2664
I175248
sg2665
I7400100
sg2656
g3258
sg2666
(dp3260
g2668
F682.0
sg2669
F20.0
sg2670
F0.2171639878667461
sg2671
F1.8531253337860107
ssg2672
I117
sg2673
(lp3261
g2675
ag2676
ag2677
asg24
I69444
sg2678
g2679
sg2680
S'dend[105]'
p3262
sg25
I68312
ssg2680
S'dend[105]'
p3263
ssI75
(dp3264
g24
I69444
sg2656
g10
(g14
S"v.&\x90'\xfb\xeb?"
p3265
tp3266
Rp3267
sg4
(dp3268
g2661
I290
sg2662
I75
sg2663
Nsg2664
I175248
sg2665
I7500100
sg2656
g3267
sg2666
(dp3269
g2668
F669.0
sg2669
F17.0
sg2670
F0.2110565822342018
sg2671
F1.7233883142471313
ssg2672
I117
sg2673
(lp3270
g2675
ag2676
ag2677
asg24
I69444
sg2678
g2679
sg2680
S'dend[20]'
p3271
sg25
I68312
ssg2680
S'dend[20]'
p3272
ssI76
(dp3273
g24
I69444
sg2656
g10
(g14
S'\xf7\x88\x18^h\x08\xcf?'
p3274
tp3275
Rp3276
sg4
(dp3277
g2661
I375
sg2662
I76
sg2663
Nsg2664
I175248
sg2665
I7600100
sg2656
g3276
sg2666
(dp3278
g2668
F658.0
sg2669
F13.0
sg2670
F0.20541513467452938
sg2671
F1.6035493612289429
ssg2672
I117
sg2673
(lp3279
g2675
ag2676
ag2677
asg24
I69444
sg2678
g2679
sg2680
S'dend[105]'
p3280
sg25
I68312
ssg2680
S'dend[105]'
p3281
ssI77
(dp3282
g24
I70186
sg2656
g10
(g14
S'\x9ba\xfe\x12\x9f\x8f\xe1?'
p3283
tp3284
Rp3285
sg4
(dp3286
g2661
I335
sg2662
I77
sg2663
Nsg2664
I175248
sg2665
I7700100
sg2656
g3285
sg2666
(dp3287
g2668
F679.0
sg2669
F19.0
sg2670
F0.21590128101040695
sg2671
F1.8263022899627686
ssg2672
I117
sg2673
(lp3288
g2675
ag2676
ag2677
asg24
I70186
sg2678
g2679
sg2680
S'dend[65]'
p3289
sg25
I68312
ssg2680
S'dend[65]'
p3290
ssI78
(dp3291
g24
I70186
sg2656
F1e-07
sg4
(dp3292
g2661
I0
sg2662
I78
sg2663
Nsg2664
I175248
sg2665
I7800100
sg2656
F1e-07
sg2666
(dp3293
g2668
F673.0
sg2669
F18.0
sg2670
F0.21273946324415877
sg2671
F1.7591370344161987
ssg2672
I117
sg2673
(lp3294
g2675
ag2676
ag2677
asg24
I70186
sg2678
g2679
sg2680
S'soma[0]'
p3295
sg25
I68312
ssg2680
S'soma[0]'
p3296
ssI79
(dp3297
g24
I70186
sg2656
F1e-07
sg4
(dp3298
g2661
I0
sg2662
I79
sg2663
Nsg2664
I175248
sg2665
I7900100
sg2656
F1e-07
sg2666
(dp3299
g2668
F686.0
sg2669
F21.0
sg2670
F0.2192743411840244
sg2671
F1.897955060005188
ssg2672
I117
sg2673
(lp3300
g2675
ag2676
ag2677
asg24
I70186
sg2678
g2679
sg2680
S'soma[0]'
p3301
sg25
I68312
ssg2680
S'soma[0]'
p3302
ssI80
(dp3303
g24
I70186
sg2656
g10
(g14
S'\xf2\x16\xd3@5q\xa4?'
p3304
tp3305
Rp3306
sg4
(dp3307
g2661
I323
sg2662
I80
sg2663
Nsg2664
I175248
sg2665
I8000100
sg2656
g3306
sg2666
(dp3308
g2668
F661.0
sg2669
F14.0
sg2670
F0.20696975505244472
sg2671
F1.6365734338760376
ssg2672
I117
sg2673
(lp3309
g2675
ag2676
ag2677
asg24
I70186
sg2678
g2679
sg2680
S'dend[53]'
p3310
sg25
I68312
ssg2680
S'dend[53]'
p3311
ssI81
(dp3312
g24
I70186
sg2656
g10
(g14
S'\xd2*\x92\x0c\xca \xd4?'
p3313
tp3314
Rp3315
sg4
(dp3316
g2661
I333
sg2662
I81
sg2663
Nsg2664
I175248
sg2665
I8100100
sg2656
g3315
sg2666
(dp3317
g2668
F683.0
sg2669
F20.0
sg2670
F0.21767059084752724
sg2671
F1.863887071609497
ssg2672
I117
sg2673
(lp3318
g2675
ag2676
ag2677
asg24
I70186
sg2678
g2679
sg2680
S'dend[63]'
p3319
sg25
I68312
ssg2680
S'dend[63]'
p3320
ssI82
(dp3321
g24
I70207
sg2656
g10
(g14
S'\xc6Y\xec%\xc1g\xe3?'
p3322
tp3323
Rp3324
sg4
(dp3325
g2661
I318
sg2662
I82
sg2663
Nsg2664
I175248
sg2665
I8200100
sg2656
g3324
sg2666
(dp3326
g2668
F682.0
sg2669
F20.0
sg2670
F0.21710325409630699
sg2671
F1.8518351316452026
ssg2672
I117
sg2673
(lp3327
g2675
ag2676
ag2677
asg24
I70207
sg2678
g2679
sg2680
S'dend[48]'
p3328
sg25
I68312
ssg2680
S'dend[48]'
p3329
ssI83
(dp3330
g24
I70207
sg2656
g10
(g14
S'}\xb8Q\xe8\xdf\xce\xe1?'
p3331
tp3332
Rp3333
sg4
(dp3334
g2661
I318
sg2662
I83
sg2663
Nsg2664
I175248
sg2665
I8300100
sg2656
g3333
sg2666
(dp3335
g2668
F666.0
sg2669
F16.0
sg2670
F0.20934579651890792
sg2671
F1.687046766281128
ssg2672
I117
sg2673
(lp3336
g2675
ag2676
ag2677
asg24
I70207
sg2678
g2679
sg2680
S'dend[48]'
p3337
sg25
I68312
ssg2680
S'dend[48]'
p3338
ssI84
(dp3339
g24
I70207
sg2656
F1e-07
sg4
(dp3340
g2661
I0
sg2662
I84
sg2663
Nsg2664
I175248
sg2665
I8400100
sg2656
F1e-07
sg2666
(dp3341
g2668
F674.0
sg2669
F18.0
sg2670
F0.21333998260425924
sg2671
F1.771893858909607
ssg2672
I117
sg2673
(lp3342
g2675
ag2676
ag2677
asg24
I70207
sg2678
g2679
sg2680
S'soma[0]'
p3343
sg25
I68312
ssg2680
S'soma[0]'
p3344
ssI85
(dp3345
g24
I70207
sg2656
F1e-07
sg4
(dp3346
g2661
I0
sg2662
I85
sg2663
Nsg2664
I175248
sg2665
I8500100
sg2656
F1e-07
sg2666
(dp3347
g2668
F661.0
sg2669
F14.0
sg2670
F0.20705663843589406
sg2671
F1.6384191513061523
ssg2672
I117
sg2673
(lp3348
g2675
ag2676
ag2677
asg24
I70207
sg2678
g2679
sg2680
S'soma[0]'
p3349
sg25
I68312
ssg2680
S'soma[0]'
p3350
ssI86
(dp3351
g24
I70207
sg2656
F1e-07
sg4
(dp3352
g2661
I0
sg2662
I86
sg2663
Nsg2664
I175248
sg2665
I8600100
sg2656
F1e-07
sg2666
(dp3353
g2668
F672.0
sg2669
F17.0
sg2670
F0.2121275042175265
sg2671
F1.7461374998092651
ssg2672
I117
sg2673
(lp3354
g2675
ag2676
ag2677
asg24
I70207
sg2678
g2679
sg2680
S'soma[0]'
p3355
sg25
I68312
ssg2680
S'soma[0]'
p3356
ssI87
(dp3357
g24
I70207
sg2656
g10
(g14
S'\xf6\x99{\xf3.0\xe2?'
p3358
tp3359
Rp3360
sg4
(dp3361
g2661
I318
sg2662
I87
sg2663
Nsg2664
I175248
sg2665
I8700100
sg2656
g3360
sg2666
(dp3362
g2668
F683.0
sg2669
F21.0
sg2670
F0.21789322241517425
sg2671
F1.8686161041259766
ssg2672
I117
sg2673
(lp3363
g2675
ag2676
ag2677
asg24
I70207
sg2678
g2679
sg2680
S'dend[48]'
p3364
sg25
I68312
ssg2680
S'dend[48]'
p3365
ssI88
(dp3366
g24
I70393
sg2656
g10
(g14
S'\x1e\xfd4\x0f\xa9\xb1\xc0?'
p3367
tp3368
Rp3369
sg4
(dp3370
g2661
I271
sg2662
I88
sg2663
Nsg2664
I175248
sg2665
I8800100
sg2656
g3369
sg2666
(dp3371
g2668
F316.0
sg2669
F12.0
sg2670
F0.05290826515434916
sg2893
F6.182562828063965
sg2894
F0.06016801038430742
ssg2672
I1
sg2673
(lp3372
g2896
ag2897
asg24
I70393
sg2678
g2898
sg2680
S'dend[1]'
p3373
sg25
I68312
ssg2680
S'dend[1]'
p3374
ssI89
(dp3375
g24
I70393
sg2656
g10
(g14
S'1[\xe1\x11\xaf\xd8\xef?'
p3376
tp3377
Rp3378
sg4
(dp3379
g2661
I361
sg2662
I89
sg2663
Nsg2664
I175248
sg2665
I8900100
sg2656
g3378
sg2666
(dp3380
g2668
F963.0
sg2669
F27.0
sg2670
F0.14093176731165785
sg2893
F9.698514938354492
sg2894
F0.04487033298441288
ssg2672
I1
sg2673
(lp3381
g2896
ag2897
asg24
I70393
sg2678
g2898
sg2680
S'dend[91]'
p3382
sg25
I68312
ssg2680
S'dend[91]'
p3383
ssI90
(dp3384
g24
I70393
sg2656
g10
(g14
S'\xb6\xbbJ\x82\x0c\xc5\xd7?'
p3385
tp3386
Rp3387
sg4
(dp3388
g2661
I322
sg2662
I90
sg2663
Nsg2664
I175248
sg2665
I9000100
sg2656
g3387
sg2666
(dp3389
g2668
F690.0
sg2669
F21.0
sg2670
F0.1036917258894933
sg2893
F8.211023330688477
sg2894
F0.3988894114907621
ssg2672
I1
sg2673
(lp3390
g2896
ag2897
asg24
I70393
sg2678
g2898
sg2680
S'dend[52]'
p3391
sg25
I68312
ssg2680
S'dend[52]'
p3392
ssI91
(dp3393
g24
I70393
sg2656
g10
(g14
S'\x05\x96k\xb86\x17\xc8?'
p3394
tp3395
Rp3396
sg4
(dp3397
g2661
I373
sg2662
I91
sg2663
Nsg2664
I175248
sg2665
I9100100
sg2656
g3396
sg2666
(dp3398
g2668
F561.0
sg2669
F18.0
sg2670
F0.0861815106640366
sg2893
F7.5116071701049805
sg2894
F0.08211004240219277
ssg2672
I1
sg2673
(lp3399
g2896
ag2897
asg24
I70393
sg2678
g2898
sg2680
S'dend[103]'
p3400
sg25
I68312
ssg2680
S'dend[103]'
p3401
ssI92
(dp3402
g24
I70393
sg2656
g10
(g14
S'qo\xc3\x85=S\xd9?'
p3403
tp3404
Rp3405
sg4
(dp3406
g2661
I293
sg2662
I92
sg2663
Nsg2664
I175248
sg2665
I9200100
sg2656
g3405
sg2666
(dp3407
g2668
F910.0
sg2669
F26.0
sg2670
F0.13362880288747192
sg2893
F9.40680980682373
sg2894
F0.040832920574115174
ssg2672
I1
sg2673
(lp3408
g2896
ag2897
asg24
I70393
sg2678
g2898
sg2680
S'dend[23]'
p3409
sg25
I68312
ssg2680
S'dend[23]'
p3410
ssI93
(dp3411
g24
I70393
sg2656
g10
(g14
S'\xd1O^\xcbq\xfc\xd1?'
p3412
tp3413
Rp3414
sg4
(dp3415
g2661
I382
sg2662
I93
sg2663
Nsg2664
I175248
sg2665
I9300100
sg2656
g3414
sg2666
(dp3416
g2668
F523.0
sg2669
F17.0
sg2670
F0.08102902046265294
sg2893
F7.305799961090088
sg2894
F0.056533583516970194
ssg2672
I1
sg2673
(lp3417
g2896
ag2897
asg24
I70393
sg2678
g2898
sg2680
S'dend[112]'
p3418
sg25
I68312
ssg2680
S'dend[112]'
p3419
ssI94
(dp3420
g24
I70393
sg2656
g10
(g14
S'\xbf:k\xd3\x9b\xe1\xda?'
p3421
tp3422
Rp3423
sg4
(dp3424
g2661
I384
sg2662
I94
sg2663
Nsg2664
I175248
sg2665
I9400100
sg2656
g3423
sg2666
(dp3425
g2668
F847.0
sg2669
F24.0
sg2670
F0.1251127666280687
sg2893
F9.066651344299316
sg2894
F0.36265491261284366
ssg2672
I1
sg2673
(lp3426
g2896
ag2897
asg24
I70393
sg2678
g2898
sg2680
S'dend[114]'
p3427
sg25
I68312
ssg2680
S'dend[114]'
p3428
ssI95
(dp3429
g24
I70597
sg2656
g10
(g14
S'\xc1v,\xb8\xfcM\xd4?'
p3430
tp3431
Rp3432
sg4
(dp3433
g2661
I273
sg2662
I95
sg2663
Nsg2664
I175248
sg2665
I9500100
sg2656
g3432
sg2666
(dp3434
g2668
F663.0
sg2669
F15.0
sg2670
F0.2077767060992206
sg2671
F1.6537151336669922
ssg2672
I117
sg2673
(lp3435
g2675
ag2676
ag2677
asg24
I70597
sg2678
g2679
sg2680
S'dend[3]'
p3436
sg25
I68312
ssg2680
S'dend[3]'
p3437
ssI96
(dp3438
g24
I70597
sg2656
g10
(g14
S'\xb1_\x8f\x9axD\xd4?'
p3439
tp3440
Rp3441
sg4
(dp3442
g2661
I273
sg2662
I96
sg2663
Nsg2664
I175248
sg2665
I9600100
sg2656
g3441
sg2666
(dp3443
g2668
F661.0
sg2669
F14.0
sg2670
F0.20668154111397427
sg2671
F1.6304512023925781
ssg2672
I117
sg2673
(lp3444
g2675
ag2676
ag2677
asg24
I70597
sg2678
g2679
sg2680
S'dend[3]'
p3445
sg25
I68312
ssg2680
S'dend[3]'
p3446
ssI97
(dp3447
g24
I70597
sg2656
g10
(g14
S'\xc1v,\xb8\xfcM\xd4?'
p3448
tp3449
Rp3450
sg4
(dp3451
g2661
I273
sg2662
I97
sg2663
Nsg2664
I175248
sg2665
I9700100
sg2656
g3450
sg2666
(dp3452
g2668
F685.0
sg2669
F21.0
sg2670
F0.21902456250485056
sg2671
F1.8926485776901245
ssg2672
I117
sg2673
(lp3453
g2675
ag2676
ag2677
asg24
I70597
sg2678
g2679
sg2680
S'dend[3]'
p3454
sg25
I68312
ssg2680
S'dend[3]'
p3455
ssI98
(dp3456
g24
I70733
sg2656
g10
(g14
S'\xba\x9eC\xd8\xf7\xb4\xe7?'
p3457
tp3458
Rp3459
sg4
(dp3460
g2661
I306
sg2662
I98
sg2663
Nsg2664
I175248
sg2665
I9800100
sg2656
g3459
sg2666
(dp3461
g2668
F683.0
sg2669
F21.0
sg2670
F0.2178255440348097
sg2671
F1.8671783208847046
ssg2672
I117
sg2673
(lp3462
g2675
ag2676
ag2677
asg24
I70733
sg2678
g2679
sg2680
S'dend[36]'
p3463
sg25
I68312
ssg2680
S'dend[36]'
p3464
ssI99
(dp3465
g24
I70733
sg2656
F1e-07
sg4
(dp3466
g2661
I0
sg2662
I99
sg2663
Nsg2664
I175248
sg2665
I9900100
sg2656
F1e-07
sg2666
(dp3467
g2668
F668.0
sg2669
F16.0
sg2670
F0.21050994042055943
sg2671
F1.7117762565612793
ssg2672
I117
sg2673
(lp3468
g2675
ag2676
ag2677
asg24
I70733
sg2678
g2679
sg2680
S'soma[0]'
p3469
sg25
I68312
ssg2680
S'soma[0]'
p3470
ssI100
(dp3471
g24
I70733
sg2656
F1e-07
sg4
(dp3472
g2661
I0
sg2662
I100
sg2663
Nsg2664
I175248
sg2665
I10000100
sg2656
F1e-07
sg2666
(dp3473
g2668
F660.0
sg2669
F14.0
sg2670
F0.2063422653527064
sg2671
F1.6232439279556274
ssg2672
I117
sg2673
(lp3474
g2675
ag2676
ag2677
asg24
I70733
sg2678
g2679
sg2680
S'soma[0]'
p3475
sg25
I68312
ssg2680
S'soma[0]'
p3476
ssI101
(dp3477
g24
I70890
sg2656
F1e-07
sg4
(dp3478
g2661
I0
sg2662
I101
sg2663
Nsg2664
I175248
sg2665
I10100100
sg2656
F1e-07
sg2666
(dp3479
g2668
F685.0
sg2669
F21.0
sg2670
F0.21905521980103063
sg2671
F1.89329993724823
ssg2672
I117
sg2673
(lp3480
g2675
ag2676
ag2677
asg24
I70890
sg2678
g2679
sg2680
S'soma[0]'
p3481
sg25
I68312
ssg2680
S'soma[0]'
p3482
ssI102
(dp3483
g24
I70890
sg2656
F1e-07
sg4
(dp3484
g2661
I0
sg2662
I102
sg2663
Nsg2664
I175248
sg2665
I10200100
sg2656
F1e-07
sg2666
(dp3485
g2668
F665.0
sg2669
F15.0
sg2670
F0.20906263320583782
sg2671
F1.681031584739685
ssg2672
I117
sg2673
(lp3486
g2675
ag2676
ag2677
asg24
I70890
sg2678
g2679
sg2680
S'soma[0]'
p3487
sg25
I68312
ssg2680
S'soma[0]'
p3488
ssI103
(dp3489
g24
I70890
sg2656
F1e-07
sg4
(dp3490
g2661
I0
sg2662
I103
sg2663
Nsg2664
I175248
sg2665
I10300100
sg2656
F1e-07
sg2666
(dp3491
g2668
F672.0
sg2669
F17.0
sg2670
F0.21252395305832622
sg2671
F1.754558801651001
ssg2672
I117
sg2673
(lp3492
g2675
ag2676
ag2677
asg24
I70890
sg2678
g2679
sg2680
S'soma[0]'
p3493
sg25
I68312
ssg2680
S'soma[0]'
p3494
ssI104
(dp3495
g24
I70923
sg2656
g10
(g14
S'\xbc\xdc\x99P\x1c\x84\xdc?'
p3496
tp3497
Rp3498
sg4
(dp3499
g2661
I377
sg2662
I104
sg2663
Nsg2664
I175248
sg2665
I10400100
sg2656
g3498
sg2666
(dp3500
g2668
F696.0
sg2669
F21.0
sg2670
F0.10453104513180364
sg2893
F8.244548797607422
sg2894
F0.06968703017583609
ssg2672
I1
sg2673
(lp3501
g2896
ag2897
asg24
I70923
sg2678
g2898
sg2680
S'dend[107]'
p3502
sg25
I68312
ssg2680
S'dend[107]'
p3503
ssI105
(dp3504
g24
I70923
sg2656
g10
(g14
S'&Z\n"\x80\xd4\xe2?'
p3505
tp3506
Rp3507
sg4
(dp3508
g2661
I341
sg2662
I105
sg2663
Nsg2664
I175248
sg2665
I10500100
sg2656
g3507
sg2666
(dp3509
g2668
F795.0
sg2669
F23.0
sg2670
F0.11798965497438889
sg2893
F8.782130241394043
sg2894
F0.1336050587388176
ssg2672
I1
sg2673
(lp3510
g2896
ag2897
asg24
I70923
sg2678
g2898
sg2680
S'dend[71]'
p3511
sg25
I68312
ssg2680
S'dend[71]'
p3512
ssI106
(dp3513
g24
I70923
sg2656
g10
(g14
S'!\xb3\x95\x16\xdd\xa3\x8c?'
p3514
tp3515
Rp3516
sg4
(dp3517
g2661
I306
sg2662
I106
sg2663
Nsg2664
I175248
sg2665
I10600100
sg2656
g3516
sg2666
(dp3518
g2668
F982.0
sg2669
F27.0
sg2670
F0.1433867879328189
sg2893
F9.796576499938965
sg2894
F0.21103944756177406
ssg2672
I1
sg2673
(lp3519
g2896
ag2897
asg24
I70923
sg2678
g2898
sg2680
S'dend[36]'
p3520
sg25
I68312
ssg2680
S'dend[36]'
p3521
ssI107
(dp3522
g24
I70923
sg2656
g10
(g14
S'1|-\x9c\xb9\xc5\xb7?'
p3523
tp3524
Rp3525
sg4
(dp3526
g2661
I368
sg2662
I107
sg2663
Nsg2664
I175248
sg2665
I10700100
sg2656
g3525
sg2666
(dp3527
g2668
F552.0
sg2669
F18.0
sg2670
F0.08492254758377547
sg2893
F7.461319923400879
sg2894
F0.04631830215572831
ssg2672
I1
sg2673
(lp3528
g2896
ag2897
asg24
I70923
sg2678
g2898
sg2680
S'dend[98]'
p3529
sg25
I68312
ssg2680
S'dend[98]'
p3530
ssI108
(dp3531
g24
I70923
sg2656
F1e-07
sg4
(dp3532
g2661
I0
sg2662
I108
sg2663
Nsg2664
I175248
sg2665
I10800100
sg2656
F1e-07
sg2666
(dp3533
g2668
F752.0
sg2669
F22.0
sg2670
F0.11221747197622868
sg2893
F8.551569938659668
sg2894
F0.34651834082871247
ssg2672
I1
sg2673
(lp3534
g2896
ag2897
asg24
I70923
sg2678
g2898
sg2680
S'soma[0]'
p3535
sg25
I68312
ssg2680
S'soma[0]'
p3536
ssI109
(dp3537
g24
I70923
sg2656
F1e-07
sg4
(dp3538
g2661
I0
sg2662
I109
sg2663
Nsg2664
I175248
sg2665
I10900100
sg2656
F1e-07
sg2666
(dp3539
g2668
F742.0
sg2669
F22.0
sg2670
F0.11083833557784818
sg2893
F8.496482849121094
sg2894
F0.2917997094598812
ssg2672
I1
sg2673
(lp3540
g2896
ag2897
asg24
I70923
sg2678
g2898
sg2680
S'soma[0]'
p3541
sg25
I68312
ssg2680
S'soma[0]'
p3542
ssI110
(dp3543
g24
I70923
sg2656
g10
(g14
S'#h\xf3J\xb9\xa2\xee?'
p3544
tp3545
Rp3546
sg4
(dp3547
g2661
I338
sg2662
I110
sg2663
Nsg2664
I175248
sg2665
I11000100
sg2656
g3546
sg2666
(dp3548
g2668
F1034.0
sg2669
F28.0
sg2670
F0.1505396730232337
sg2893
F10.082286834716797
sg2894
F0.7787997649442233
ssg2672
I1
sg2673
(lp3549
g2896
ag2897
asg24
I70923
sg2678
g2898
sg2680
S'dend[68]'
p3550
sg25
I68312
ssg2680
S'dend[68]'
p3551
ssI111
(dp3552
g24
I71002
sg2656
g10
(g14
S'e\x15\xac6;\x9d\xc8?'
p3553
tp3554
Rp3555
sg4
(dp3556
g2661
I339
sg2662
I111
sg2663
Nsg2664
I175248
sg2665
I11100100
sg2656
g3555
sg2666
(dp3557
g2668
F657.0
sg2669
F13.0
sg2670
F0.20503350941927964
sg2671
F1.5954426527023315
ssg2672
I117
sg2673
(lp3558
g2675
ag2676
ag2677
asg24
I71002
sg2678
g2679
sg2680
S'dend[69]'
p3559
sg25
I68312
ssg2680
S'dend[69]'
p3560
ssI112
(dp3561
g24
I71002
sg2656
g10
(g14
S'\x16\x96\x14\xff\x89D\xdb?'
p3562
tp3563
Rp3564
sg4
(dp3565
g2661
I379
sg2662
I112
sg2663
Nsg2664
I175248
sg2665
I11200100
sg2656
g3564
sg2666
(dp3566
g2668
F688.0
sg2669
F22.0
sg2670
F0.22016370581077035
sg2671
F1.9168473482131958
ssg2672
I117
sg2673
(lp3567
g2675
ag2676
ag2677
asg24
I71002
sg2678
g2679
sg2680
S'dend[109]'
p3568
sg25
I68312
ssg2680
S'dend[109]'
p3569
ssI113
(dp3570
g24
I71210
sg2656
g10
(g14
S'1TR\xdf\x9a\xdb\xe3?'
p3571
tp3572
Rp3573
sg4
(dp3574
g2661
I340
sg2662
I113
sg2663
Nsg2664
I175248
sg2665
I11300100
sg2656
g3573
sg2666
(dp3575
g2668
F1054.0
sg2669
F29.0
sg2670
F0.1533025797687995
sg2893
F10.192646026611328
sg2894
F0.11630037574272792
ssg2672
I1
sg2673
(lp3576
g2896
ag2897
asg24
I71210
sg2678
g2898
sg2680
S'dend[70]'
p3577
sg25
I68312
ssg2680
S'dend[70]'
p3578
ssI114
(dp3579
g24
I71210
sg2656
g10
(g14
S']\xc6\xdde\xe7\xb8\xe4?'
p3580
tp3581
Rp3582
sg4
(dp3583
g2661
I377
sg2662
I114
sg2663
Nsg2664
I175248
sg2665
I11400100
sg2656
g3582
sg2666
(dp3584
g2668
F950.0
sg2669
F26.0
sg2670
F0.1390536417502872
sg2893
F9.623496055603027
sg2894
F0.08317416373993015
ssg2672
I1
sg2673
(lp3585
g2896
ag2897
asg24
I71210
sg2678
g2898
sg2680
S'dend[107]'
p3586
sg25
I68312
ssg2680
S'dend[107]'
p3587
ssI115
(dp3588
g24
I71210
sg2656
g10
(g14
S'\xffl\xc8\n\xd1K\xc6?'
p3589
tp3590
Rp3591
sg4
(dp3592
g2661
I284
sg2662
I115
sg2663
Nsg2664
I175248
sg2665
I11500100
sg2656
g3591
sg2666
(dp3593
g2668
F356.0
sg2669
F13.0
sg2670
F0.05835876435083906
sg2893
F6.400274276733398
sg2894
F0.7247680548022025
ssg2672
I1
sg2673
(lp3594
g2896
ag2897
asg24
I71210
sg2678
g2898
sg2680
S'dend[14]'
p3595
sg25
I68312
ssg2680
S'dend[14]'
p3596
ssI116
(dp3597
g24
I71210
sg2656
g10
(g14
S'\xa5\x84\xd1\x01rQ\xe7?'
p3598
tp3599
Rp3600
sg4
(dp3601
g2661
I276
sg2662
I116
sg2663
Nsg2664
I175248
sg2665
I11600100
sg2656
g3600
sg2666
(dp3602
g2668
F890.0
sg2669
F25.0
sg2670
F0.1310076924500207
sg2893
F9.302114486694336
sg2894
F0.20901287216187514
ssg2672
I1
sg2673
(lp3603
g2896
ag2897
asg24
I71210
sg2678
g2898
sg2680
S'dend[6]'
p3604
sg25
I68312
ssg2680
S'dend[6]'
p3605
ssI117
(dp3606
g24
I71210
sg2656
g10
(g14
S'\xbbx!#F\xd8\xe1?'
p3607
tp3608
Rp3609
sg4
(dp3610
g2661
I305
sg2662
I117
sg2663
Nsg2664
I175248
sg2665
I11700100
sg2656
g3609
sg2666
(dp3611
g2668
F752.0
sg2669
F22.0
sg2670
F0.11215781146368715
sg2893
F8.549187660217285
sg2894
F0.09328640257648779
ssg2672
I1
sg2673
(lp3612
g2896
ag2897
asg24
I71210
sg2678
g2898
sg2680
S'dend[35]'
p3613
sg25
I68312
ssg2680
S'dend[35]'
p3614
ssI118
(dp3615
g24
I71210
sg2656
g10
(g14
S';\x7f\xc295\xc9\xbd?'
p3616
tp3617
Rp3618
sg4
(dp3619
g2661
I307
sg2662
I118
sg2663
Nsg2664
I175248
sg2665
I11800100
sg2656
g3618
sg2666
(dp3620
g2668
F669.0
sg2669
F20.0
sg2670
F0.10094712134772199
sg2893
F8.101394653320312
sg2894
F0.050428767636771635
ssg2672
I1
sg2673
(lp3621
g2896
ag2897
asg24
I71210
sg2678
g2898
sg2680
S'dend[37]'
p3622
sg25
I68312
ssg2680
S'dend[37]'
p3623
ssI119
(dp3624
g24
I71210
sg2656
g10
(g14
S'\x138%\xba\x1c2\xc0?'
p3625
tp3626
Rp3627
sg4
(dp3628
g2661
I307
sg2662
I119
sg2663
Nsg2664
I175248
sg2665
I11900100
sg2656
g3627
sg2666
(dp3629
g2668
F540.0
sg2669
F17.0
sg2670
F0.08340429802202434
sg2893
F7.400676250457764
sg2894
F0.5625522506190288
ssg2672
I1
sg2673
(lp3630
g2896
ag2897
asg24
I71210
sg2678
g2898
sg2680
S'dend[37]'
p3631
sg25
I68312
ssg2680
S'dend[37]'
p3632
ssI120
(dp3633
g24
I71210
sg2656
g10
(g14
S'o\x90\xdc\x10a\x0e\xc0?'
p3634
tp3635
Rp3636
sg4
(dp3637
g2661
I307
sg2662
I120
sg2663
Nsg2664
I175248
sg2665
I12000100
sg2656
g3636
sg2666
(dp3638
g2668
F770.0
sg2669
F22.0
sg2670
F0.11468928592684585
sg2893
F8.65030288696289
sg2894
F0.13124170198843219
ssg2672
I1
sg2673
(lp3639
g2896
ag2897
asg24
I71210
sg2678
g2898
sg2680
S'dend[37]'
p3640
sg25
I68312
ssg2680
S'dend[37]'
p3641
ssI121
(dp3642
g24
I71447
sg2656
g10
(g14
S'\xee(\xdd\x14O`\xed?'
p3643
tp3644
Rp3645
sg4
(dp3646
g2661
I287
sg2662
I121
sg2663
Nsg2664
I175248
sg2665
I12100100
sg2656
g3645
sg2666
(dp3647
g2668
F677.0
sg2669
F19.0
sg2670
F0.21466349899041848
sg2671
F1.8000086545944214
ssg2672
I117
sg2673
(lp3648
g2675
ag2676
ag2677
asg24
I71447
sg2678
g2679
sg2680
S'dend[17]'
p3649
sg25
I68312
ssg2680
S'dend[17]'
p3650
ssI122
(dp3651
g24
I71447
sg2656
g10
(g14
S'\x80\xf0/\x01\xa8\x16\xd6?'
p3652
tp3653
Rp3654
sg4
(dp3655
g2661
I359
sg2662
I122
sg2663
Nsg2664
I175248
sg2665
I12200100
sg2656
g3654
sg2666
(dp3656
g2668
F685.0
sg2669
F21.0
sg2670
F0.21882251223570992
sg2671
F1.8883565664291382
ssg2672
I117
sg2673
(lp3657
g2675
ag2676
ag2677
asg24
I71447
sg2678
g2679
sg2680
S'dend[89]'
p3658
sg25
I68312
ssg2680
S'dend[89]'
p3659
ssI123
(dp3660
g24
I71447
sg2656
g10
(g14
S'\xe2\xc4\xbe\xc5\x92,\xe3?'
p3661
tp3662
Rp3663
sg4
(dp3664
g2661
I304
sg2662
I123
sg2663
Nsg2664
I175248
sg2665
I12300100
sg2656
g3663
sg2666
(dp3665
g2668
F667.0
sg2669
F16.0
sg2670
F0.20990282999431148
sg2671
F1.6988797187805176
ssg2672
I117
sg2673
(lp3666
g2675
ag2676
ag2677
asg24
I71447
sg2678
g2679
sg2680
S'dend[34]'
p3667
sg25
I68312
ssg2680
S'dend[34]'
p3668
ssI124
(dp3669
g24
I71534
sg2656
g10
(g14
S'\x10:pZ\xc3C\xd2?'
p3670
tp3671
Rp3672
sg4
(dp3673
g2661
I365
sg2662
I124
sg2663
Nsg2664
I175248
sg2665
I12400100
sg2656
g3672
sg2666
(dp3674
g2668
F973.0
sg2669
F27.0
sg2670
F0.14223563676500978
sg2893
F9.750596046447754
sg2894
F0.061424638288222214
ssg2672
I1
sg2673
(lp3675
g2896
ag2897
asg24
I71534
sg2678
g2898
sg2680
S'dend[95]'
p3676
sg25
I68312
ssg2680
S'dend[95]'
p3677
ssI125
(dp3678
g24
I71534
sg2656
g10
(g14
S'\x8d\xf8`}\xb9\xc0\xcc?'
p3679
tp3680
Rp3681
sg4
(dp3682
g2661
I385
sg2662
I125
sg2663
Nsg2664
I175248
sg2665
I12500100
sg2656
g3681
sg2666
(dp3683
g2668
F722.0
sg2669
F21.0
sg2670
F0.10807623693234644
sg2893
F8.386155128479004
sg2894
F0.2923772645542327
ssg2672
I1
sg2673
(lp3684
g2896
ag2897
asg24
I71534
sg2678
g2898
sg2680
S'dend[115]'
p3685
sg25
I68312
ssg2680
S'dend[115]'
p3686
ssI126
(dp3687
g24
I71534
sg2656
g10
(g14
S'\xcb\x07\xf8\x1d\n%\xe2?'
p3688
tp3689
Rp3690
sg4
(dp3691
g2661
I374
sg2662
I126
sg2663
Nsg2664
I175248
sg2665
I12600100
sg2656
g3690
sg2666
(dp3692
g2668
F398.0
sg2669
F14.0
sg2670
F0.06409560559776038
sg2893
F6.629422664642334
sg2894
F0.11563004200076538
ssg2672
I1
sg2673
(lp3693
g2896
ag2897
asg24
I71534
sg2678
g2898
sg2680
S'dend[104]'
p3694
sg25
I68312
ssg2680
S'dend[104]'
p3695
ssI127
(dp3696
g24
I71534
sg2656
g10
(g14
S'\xf7\x8eP\x0e\xa9\xcc\xd3?'
p3697
tp3698
Rp3699
sg4
(dp3700
g2661
I364
sg2662
I127
sg2663
Nsg2664
I175248
sg2665
I12700100
sg2656
g3699
sg2666
(dp3701
g2668
F792.0
sg2669
F23.0
sg2670
F0.11763118683659972
sg2893
F8.767812728881836
sg2894
F0.4470120825988317
ssg2672
I1
sg2673
(lp3702
g2896
ag2897
asg24
I71534
sg2678
g2898
sg2680
S'dend[94]'
p3703
sg25
I68312
ssg2680
S'dend[94]'
p3704
ssI128
(dp3705
g24
I71534
sg2656
g10
(g14
S'\xd8\x8e\xc8\xa7\xab\x03\xe0?'
p3706
tp3707
Rp3708
sg4
(dp3709
g2661
I374
sg2662
I128
sg2663
Nsg2664
I175248
sg2665
I12800100
sg2656
g3708
sg2666
(dp3710
g2668
F1035.0
sg2669
F28.0
sg2670
F0.15068720179117764
sg2893
F10.088179588317871
sg2894
F0.23795831138699583
ssg2672
I1
sg2673
(lp3711
g2896
ag2897
asg24
I71534
sg2678
g2898
sg2680
S'dend[104]'
p3712
sg25
I68312
ssg2680
S'dend[104]'
p3713
ssI129
(dp3714
g24
I71534
sg2656
g10
(g14
S'\t\xcfD\x14\xc2\x1d\xe1?'
p3715
tp3716
Rp3717
sg4
(dp3718
g2661
I374
sg2662
I129
sg2663
Nsg2664
I175248
sg2665
I12900100
sg2656
g3717
sg2666
(dp3719
g2668
F1051.0
sg2669
F29.0
sg2670
F0.1528160277708577
sg2893
F10.173212051391602
sg2894
F0.07159093234453588
ssg2672
I1
sg2673
(lp3720
g2896
ag2897
asg24
I71534
sg2678
g2898
sg2680
S'dend[104]'
p3721
sg25
I68312
ssg2680
S'dend[104]'
p3722
ssI130
(dp3723
g24
I71626
sg2656
F1e-07
sg4
(dp3724
g2661
I0
sg2662
I130
sg2663
Nsg2664
I175248
sg2665
I13000100
sg2656
F1e-07
sg2666
(dp3725
g2668
F675.0
sg2669
F18.0
sg2670
F0.21358577128936682
sg2671
F1.7771146297454834
ssg2672
I117
sg2673
(lp3726
g2675
ag2676
ag2677
asg24
I71626
sg2678
g2679
sg2680
S'soma[0]'
p3727
sg25
I68312
ssg2680
S'soma[0]'
p3728
ssI131
(dp3729
g24
I71626
sg2656
F1e-07
sg4
(dp3730
g2661
I0
sg2662
I131
sg2663
Nsg2664
I175248
sg2665
I13100100
sg2656
F1e-07
sg2666
(dp3731
g2668
F661.0
sg2669
F14.0
sg2670
F0.2067012385530356
sg2671
F1.6308695077896118
ssg2672
I117
sg2673
(lp3732
g2675
ag2676
ag2677
asg24
I71626
sg2678
g2679
sg2680
S'soma[0]'
p3733
sg25
I68312
ssg2680
S'soma[0]'
p3734
ssI132
(dp3735
g24
I71626
sg2656
F1e-07
sg4
(dp3736
g2661
I0
sg2662
I132
sg2663
Nsg2664
I175248
sg2665
I13200100
sg2656
F1e-07
sg2666
(dp3737
g2668
F684.0
sg2669
F21.0
sg2670
F0.21817838072527748
sg2671
F1.874673843383789
ssg2672
I117
sg2673
(lp3738
g2675
ag2676
ag2677
asg24
I71626
sg2678
g2679
sg2680
S'soma[0]'
p3739
sg25
I68312
ssg2680
S'soma[0]'
p3740
ssI133
(dp3741
g24
I71695
sg2656
F1e-07
sg4
(dp3742
g2661
I0
sg2662
I133
sg2663
Nsg2664
I175248
sg2665
I13300100
sg2656
F1e-07
sg2666
(dp3743
g2668
F669.0
sg2669
F16.0
sg2670
F0.21074582987988233
sg2671
F1.7167870998382568
ssg2672
I117
sg2673
(lp3744
g2675
ag2676
ag2677
asg24
I71695
sg2678
g2679
sg2680
S'soma[0]'
p3745
sg25
I68312
ssg2680
S'soma[0]'
p3746
ssI134
(dp3747
g24
I71695
sg2656
F1e-07
sg4
(dp3748
g2661
I0
sg2662
I134
sg2663
Nsg2664
I175248
sg2665
I13400100
sg2656
F1e-07
sg2666
(dp3749
g2668
F656.0
sg2669
F12.0
sg2670
F0.20412010381562806
sg2671
F1.576039433479309
ssg2672
I117
sg2673
(lp3750
g2675
ag2676
ag2677
asg24
I71695
sg2678
g2679
sg2680
S'soma[0]'
p3751
sg25
I68312
ssg2680
S'soma[0]'
p3752
ssI135
(dp3753
g24
I71695
sg2656
F1e-07
sg4
(dp3754
g2661
I0
sg2662
I135
sg2663
Nsg2664
I175248
sg2665
I13500100
sg2656
F1e-07
sg2666
(dp3755
g2668
F681.0
sg2669
F20.0
sg2670
F0.21691562336268436
sg2671
F1.8478496074676514
ssg2672
I117
sg2673
(lp3756
g2675
ag2676
ag2677
asg24
I71695
sg2678
g2679
sg2680
S'soma[0]'
p3757
sg25
I68312
ssg2680
S'soma[0]'
p3758
ssI136
(dp3759
g24
I71695
sg2656
g10
(g14
S'\x16EXXL\xb2\xe8?'
p3760
tp3761
Rp3762
sg4
(dp3763
g2661
I359
sg2662
I136
sg2663
Nsg2664
I175248
sg2665
I13600100
sg2656
g3762
sg2666
(dp3764
g2668
F671.0
sg2669
F17.0
sg2670
F0.2116070877762754
sg2671
F1.7350823879241943
ssg2672
I117
sg2673
(lp3765
g2675
ag2676
ag2677
asg24
I71695
sg2678
g2679
sg2680
S'dend[89]'
p3766
sg25
I68312
ssg2680
S'dend[89]'
p3767
ssI137
(dp3768
g24
I72237
sg2656
g10
(g14
S'\x9b\xad\xf0\x9d\x1f\xda\xb1?'
p3769
tp3770
Rp3771
sg4
(dp3772
g2661
I290
sg2662
I137
sg2663
Nsg2664
I175248
sg2665
I13700100
sg2656
g3771
sg2666
(dp3773
g2668
F656.0
sg2669
F13.0
sg2670
F0.20456752609328072
sg2671
F1.5855439901351929
ssg2672
I117
sg2673
(lp3774
g2675
ag2676
ag2677
asg24
I72237
sg2678
g2679
sg2680
S'dend[20]'
p3775
sg25
I68312
ssg2680
S'dend[20]'
p3776
ssI138
(dp3777
g24
I72237
sg2656
g10
(g14
S'\xf2\xba?Fi\xfa\x90?'
p3778
tp3779
Rp3780
sg4
(dp3781
g2661
I290
sg2662
I138
sg2663
Nsg2664
I175248
sg2665
I13800100
sg2656
g3780
sg2666
(dp3782
g2668
F670.0
sg2669
F17.0
sg2670
F0.2115447251791447
sg2671
F1.7337576150894165
ssg2672
I117
sg2673
(lp3783
g2675
ag2676
ag2677
asg24
I72237
sg2678
g2679
sg2680
S'dend[20]'
p3784
sg25
I68312
ssg2680
S'dend[20]'
p3785
ssI139
(dp3786
g24
I72237
sg2656
g10
(g14
S'\xdf_]\xdeKY\xbe?'
p3787
tp3788
Rp3789
sg4
(dp3790
g2661
I361
sg2662
I139
sg2663
Nsg2664
I175248
sg2665
I13900100
sg2656
g3789
sg2666
(dp3791
g2668
F660.0
sg2669
F14.0
sg2670
F0.20627369048633326
sg2671
F1.621787190437317
ssg2672
I117
sg2673
(lp3792
g2675
ag2676
ag2677
asg24
I72237
sg2678
g2679
sg2680
S'dend[91]'
p3793
sg25
I68312
ssg2680
S'dend[91]'
p3794
ssI140
(dp3795
g24
I72237
sg2656
g10
(g14
S'\xd6\xf4Be\xd9\xd0\xee?'
p3796
tp3797
Rp3798
sg4
(dp3799
g2661
I385
sg2662
I140
sg2663
Nsg2664
I175248
sg2665
I14000100
sg2656
g3798
sg2666
(dp3800
g2668
F688.0
sg2669
F22.0
sg2670
F0.22023459133826415
sg2671
F1.918352723121643
ssg2672
I117
sg2673
(lp3801
g2675
ag2676
ag2677
asg24
I72237
sg2678
g2679
sg2680
S'dend[115]'
p3802
sg25
I68312
ssg2680
S'dend[115]'
p3803
ssI141
(dp3804
g24
I72237
sg2656
g10
(g14
S'`^\xccb\xcb\xf6\x8b?'
p3805
tp3806
Rp3807
sg4
(dp3808
g2661
I290
sg2662
I141
sg2663
Nsg2664
I175248
sg2665
I14100100
sg2656
g3807
sg2666
(dp3809
g2668
F676.0
sg2669
F18.0
sg2670
F0.21417548231111058
sg2671
F1.7896419763565063
ssg2672
I117
sg2673
(lp3810
g2675
ag2676
ag2677
asg24
I72237
sg2678
g2679
sg2680
S'dend[20]'
p3811
sg25
I68312
ssg2680
S'dend[20]'
p3812
ssI142
(dp3813
g24
I72237
sg2656
F1e-07
sg4
(dp3814
g2661
I0
sg2662
I142
sg2663
Nsg2664
I175248
sg2665
I14200100
sg2656
F1e-07
sg2666
(dp3815
g2668
F685.0
sg2669
F21.0
sg2670
F0.21863877048364552
sg2671
F1.8844536542892456
ssg2672
I117
sg2673
(lp3816
g2675
ag2676
ag2677
asg24
I72237
sg2678
g2679
sg2680
S'soma[0]'
p3817
sg25
I68312
ssg2680
S'soma[0]'
p3818
ssI143
(dp3819
g24
I72237
sg2656
F1e-07
sg4
(dp3820
g2661
I0
sg2662
I143
sg2663
Nsg2664
I175248
sg2665
I14300100
sg2656
F1e-07
sg2666
(dp3821
g2668
F682.0
sg2669
F20.0
sg2670
F0.21715105826572123
sg2671
F1.8528506755828857
ssg2672
I117
sg2673
(lp3822
g2675
ag2676
ag2677
asg24
I72237
sg2678
g2679
sg2680
S'soma[0]'
p3823
sg25
I68312
ssg2680
S'soma[0]'
p3824
ssI144
(dp3825
g24
I72237
sg2656
g10
(g14
S'\xdd\xd5\x13V\x1d\xef\xc2?'
p3826
tp3827
Rp3828
sg4
(dp3829
g2661
I349
sg2662
I144
sg2663
Nsg2664
I175248
sg2665
I14400100
sg2656
g3828
sg2666
(dp3830
g2668
F665.0
sg2669
F15.0
sg2670
F0.20863608263765207
sg2671
F1.6719704866409302
ssg2672
I117
sg2673
(lp3831
g2675
ag2676
ag2677
asg24
I72237
sg2678
g2679
sg2680
S'dend[79]'
p3832
sg25
I68312
ssg2680
S'dend[79]'
p3833
ssI145
(dp3834
g24
I72536
sg2656
g10
(g14
S'\x0cl\xcf\x81\xe2\x1d\xea?'
p3835
tp3836
Rp3837
sg4
(dp3838
g2661
I375
sg2662
I145
sg2663
Nsg2664
I175248
sg2665
I14500100
sg2656
g3837
sg2666
(dp3839
g2668
F669.0
sg2669
F17.0
sg2670
F0.2110393090953326
sg2671
F1.7230212688446045
ssg2672
I117
sg2673
(lp3840
g2675
ag2676
ag2677
asg24
I72536
sg2678
g2679
sg2680
S'dend[105]'
p3841
sg25
I68312
ssg2680
S'dend[105]'
p3842
ssI146
(dp3843
g24
I72536
sg2656
g10
(g14
S'\x83\xdd(\xeb\xa8\xc7\xde?'
p3844
tp3845
Rp3846
sg4
(dp3847
g2661
I286
sg2662
I146
sg2663
Nsg2664
I175248
sg2665
I14600100
sg2656
g3846
sg2666
(dp3848
g2668
F676.0
sg2669
F19.0
sg2670
F0.21439109350945112
sg2671
F1.7942218780517578
ssg2672
I117
sg2673
(lp3849
g2675
ag2676
ag2677
asg24
I72536
sg2678
g2679
sg2680
S'dend[16]'
p3850
sg25
I68312
ssg2680
S'dend[16]'
p3851
ssI147
(dp3852
g24
I72536
sg2656
g10
(g14
S'r\xdc\xe5\x00BV\xbf?'
p3853
tp3854
Rp3855
sg4
(dp3856
g2661
I282
sg2662
I147
sg2663
Nsg2664
I175248
sg2665
I14700100
sg2656
g3855
sg2666
(dp3857
g2668
F686.0
sg2669
F21.0
sg2670
F0.21938560646159389
sg2671
F1.9003182649612427
ssg2672
I117
sg2673
(lp3858
g2675
ag2676
ag2677
asg24
I72536
sg2678
g2679
sg2680
S'dend[12]'
p3859
sg25
I68312
ssg2680
S'dend[12]'
p3860
ssI148
(dp3861
g24
I72549
sg2656
g10
(g14
S"C\xb5'J1t\xe5?"
p3862
tp3863
Rp3864
sg4
(dp3865
g2661
I318
sg2662
I148
sg2663
Nsg2664
I175248
sg2665
I14800100
sg2656
g3864
sg2666
(dp3866
g2668
F680.0
sg2669
F20.0
sg2670
F0.21651377035270625
sg2671
F1.8393131494522095
ssg2672
I117
sg2673
(lp3867
g2675
ag2676
ag2677
asg24
I72549
sg2678
g2679
sg2680
S'dend[48]'
p3868
sg25
I68312
ssg2680
S'dend[48]'
p3869
ssI149
(dp3870
g24
I72549
sg2656
g10
(g14
S'{\\\xda\x9fE\xb4\xcd?'
p3871
tp3872
Rp3873
sg4
(dp3874
g2661
I310
sg2662
I149
sg2663
Nsg2664
I175248
sg2665
I14900100
sg2656
g3873
sg2666
(dp3875
g2668
F668.0
sg2669
F16.0
sg2670
F0.2104709495924688
sg2671
F1.7109479904174805
ssg2672
I117
sg2673
(lp3876
g2675
ag2676
ag2677
asg24
I72549
sg2678
g2679
sg2680
S'dend[40]'
p3877
sg25
I68312
ssg2680
S'dend[40]'
p3878
ssI150
(dp3879
g24
I72549
sg2656
g10
(g14
S'\xef\xd6M\xe2G\xb0\x90?'
p3880
tp3881
Rp3882
sg4
(dp3883
g2661
I359
sg2662
I150
sg2663
Nsg2664
I175248
sg2665
I15000100
sg2656
g3882
sg2666
(dp3884
g2668
F668.0
sg2669
F16.0
sg2670
F0.21053009241590678
sg2671
F1.7122043371200562
ssg2672
I117
sg2673
(lp3885
g2675
ag2676
ag2677
asg24
I72549
sg2678
g2679
sg2680
S'dend[89]'
p3886
sg25
I68312
ssg2680
S'dend[89]'
p3887
ssI151
(dp3888
g24
I72549
sg2656
g10
(g14
S'J\x1e\xe6rF\x18\xe2?'
p3889
tp3890
Rp3891
sg4
(dp3892
g2661
I314
sg2662
I151
sg2663
Nsg2664
I175248
sg2665
I15100100
sg2656
g3891
sg2666
(dp3893
g2668
F664.0
sg2669
F15.0
sg2670
F0.20848908418537515
sg2671
F1.668847918510437
ssg2672
I117
sg2673
(lp3894
g2675
ag2676
ag2677
asg24
I72549
sg2678
g2679
sg2680
S'dend[44]'
p3895
sg25
I68312
ssg2680
S'dend[44]'
p3896
ssI152
(dp3897
g24
I73263
sg2656
g10
(g14
S'\xc3\x89\xdc\x97\xa5U\xe8?'
p3898
tp3899
Rp3900
sg4
(dp3901
g2661
I280
sg2662
I152
sg2663
Nsg2664
I175248
sg2665
I15200100
sg2656
g3900
sg2666
(dp3902
g2668
F683.0
sg2669
F21.0
sg2670
F0.21777630043715637
sg2671
F1.8661326169967651
ssg2672
I117
sg2673
(lp3903
g2675
ag2676
ag2677
asg24
I73263
sg2678
g2679
sg2680
S'dend[10]'
p3904
sg25
I68312
ssg2680
S'dend[10]'
p3905
ssI153
(dp3906
g24
I73263
sg2656
g10
(g14
S'\xe8Gor\xbb\xc2\xca?'
p3907
tp3908
Rp3909
sg4
(dp3910
g2661
I322
sg2662
I153
sg2663
Nsg2664
I175248
sg2665
I15300100
sg2656
g3909
sg2666
(dp3911
g2668
F685.0
sg2669
F21.0
sg2670
F0.21904807316608912
sg2671
F1.8931483030319214
ssg2672
I117
sg2673
(lp3912
g2675
ag2676
ag2677
asg24
I73263
sg2678
g2679
sg2680
S'dend[52]'
p3913
sg25
I68312
ssg2680
S'dend[52]'
p3914
ssI154
(dp3915
g24
I73263
sg2656
g10
(g14
S'<;\x8b\xc9\x87\n\xac?'
p3916
tp3917
Rp3918
sg4
(dp3919
g2661
I322
sg2662
I154
sg2663
Nsg2664
I175248
sg2665
I15400100
sg2656
g3918
sg2666
(dp3920
g2668
F681.0
sg2669
F20.0
sg2670
F0.2166596576673951
sg2671
F1.8424121141433716
ssg2672
I117
sg2673
(lp3921
g2675
ag2676
ag2677
asg24
I73263
sg2678
g2679
sg2680
S'dend[52]'
p3922
sg25
I68312
ssg2680
S'dend[52]'
p3923
ssI155
(dp3924
g24
I73263
sg2656
F1e-07
sg4
(dp3925
g2661
I0
sg2662
I155
sg2663
Nsg2664
I175248
sg2665
I15500100
sg2656
F1e-07
sg2666
(dp3926
g2668
F665.0
sg2669
F15.0
sg2670
F0.20903451384892144
sg2671
F1.6804343461990356
ssg2672
I117
sg2673
(lp3927
g2675
ag2676
ag2677
asg24
I73263
sg2678
g2679
sg2680
S'soma[0]'
p3928
sg25
I68312
ssg2680
S'soma[0]'
p3929
ssI156
(dp3930
g24
I73263
sg2656
g10
(g14
S'\x99\x96V\xd3\xc6W\xd9?'
p3931
tp3932
Rp3933
sg4
(dp3934
g2661
I319
sg2662
I156
sg2663
Nsg2664
I175248
sg2665
I15600100
sg2656
g3933
sg2666
(dp3935
g2668
F683.0
sg2669
F21.0
sg2670
F0.2179886287289867
sg2671
F1.8706427812576294
ssg2672
I117
sg2673
(lp3936
g2675
ag2676
ag2677
asg24
I73263
sg2678
g2679
sg2680
S'dend[49]'
p3937
sg25
I68312
ssg2680
S'dend[49]'
p3938
ssI157
(dp3939
g24
I73610
sg2656
g10
(g14
S'\xee\xe0\xaf\xa1\xd9\x1b\xe1?'
p3940
tp3941
Rp3942
sg4
(dp3943
g2661
I358
sg2662
I157
sg2663
Nsg2664
I175248
sg2665
I15700100
sg2656
g3942
sg2666
(dp3944
g2668
F672.0
sg2669
F17.0
sg2670
F0.21258254031297016
sg2671
F1.7558033466339111
ssg2672
I117
sg2673
(lp3945
g2675
ag2676
ag2677
asg24
I73610
sg2678
g2679
sg2680
S'dend[88]'
p3946
sg25
I68312
ssg2680
S'dend[88]'
p3947
ssI158
(dp3948
g24
I73610
sg2656
g10
(g14
S'C\x14\x1b\xc6\xce\xec\xd0?'
p3949
tp3950
Rp3951
sg4
(dp3952
g2661
I294
sg2662
I158
sg2663
Nsg2664
I175248
sg2665
I15800100
sg2656
g3951
sg2666
(dp3953
g2668
F664.0
sg2669
F15.0
sg2670
F0.2081069412410219
sg2671
F1.6607303619384766
ssg2672
I117
sg2673
(lp3954
g2675
ag2676
ag2677
asg24
I73610
sg2678
g2679
sg2680
S'dend[24]'
p3955
sg25
I68312
ssg2680
S'dend[24]'
p3956
ssI159
(dp3957
g24
I73610
sg2656
g10
(g14
S':]\xd1\x10{\xd2\xd8?'
p3958
tp3959
Rp3960
sg4
(dp3961
g2661
I336
sg2662
I159
sg2663
Nsg2664
I175248
sg2665
I15900100
sg2656
g3960
sg2666
(dp3962
g2668
F666.0
sg2669
F16.0
sg2670
F0.20938261557807641
sg2671
F1.6878288984298706
ssg2672
I117
sg2673
(lp3963
g2675
ag2676
ag2677
asg24
I73610
sg2678
g2679
sg2680
S'dend[66]'
p3964
sg25
I68312
ssg2680
S'dend[66]'
p3965
ssI160
(dp3966
g24
I73873
sg2656
g10
(g14
S'\xber\xf0\t\x991\xcb?'
p3967
tp3968
Rp3969
sg4
(dp3970
g2661
I317
sg2662
I160
sg2663
Nsg2664
I175248
sg2665
I16000100
sg2656
g3969
sg2666
(dp3971
g2668
F625.0
sg2669
F19.0
sg2670
F0.09494446568598074
sg2893
F7.861629009246826
sg2894
F0.1307593565652843
ssg2672
I1
sg2673
(lp3972
g2896
ag2897
asg24
I73873
sg2678
g2898
sg2680
S'dend[47]'
p3973
sg25
I68312
ssg2680
S'dend[47]'
p3974
ssI161
(dp3975
g24
I73873
sg2656
g10
(g14
S'O\x82\x97-\xfec\xc7?'
p3976
tp3977
Rp3978
sg4
(dp3979
g2661
I270
sg2662
I161
sg2663
Nsg2664
I175248
sg2665
I16100100
sg2656
g3978
sg2666
(dp3980
g2668
F396.0
sg2669
F14.0
sg2670
F0.06378097057516442
sg2893
F6.616855144500732
sg2894
F0.18138118965439542
ssg2672
I1
sg2673
(lp3981
g2896
ag2897
asg24
I73873
sg2678
g2898
sg2680
S'dend[0]'
p3982
sg25
I68312
ssg2680
S'dend[0]'
p3983
ssI162
(dp3984
g24
I73873
sg2656
g10
(g14
S'9\x81\xe5\xe9\x10\xa8\xe5?'
p3985
tp3986
Rp3987
sg4
(dp3988
g2661
I289
sg2662
I162
sg2663
Nsg2664
I175248
sg2665
I16200100
sg2656
g3987
sg2666
(dp3989
g2668
F870.0
sg2669
F25.0
sg2670
F0.128239065871189
sg2893
F9.191526412963867
sg2894
F0.11934261133292
ssg2672
I1
sg2673
(lp3990
g2896
ag2897
asg24
I73873
sg2678
g2898
sg2680
S'dend[19]'
p3991
sg25
I68312
ssg2680
S'dend[19]'
p3992
ssI163
(dp3993
g24
I73873
sg2656
g10
(g14
S'\xae\xec$\x9d\x8d\xdd\xc6?'
p3994
tp3995
Rp3996
sg4
(dp3997
g2661
I353
sg2662
I163
sg2663
Nsg2664
I175248
sg2665
I16300100
sg2656
g3996
sg2666
(dp3998
g2668
F918.0
sg2669
F26.0
sg2670
F0.13481319979697878
sg2893
F9.454118728637695
sg2894
F0.0934721292305631
ssg2672
I1
sg2673
(lp3999
g2896
ag2897
asg24
I73873
sg2678
g2898
sg2680
S'dend[83]'
p4000
sg25
I68312
ssg2680
S'dend[83]'
p4001
ssI164
(dp4002
g24
I73873
sg2656
F1e-07
sg4
(dp4003
g2661
I0
sg2662
I164
sg2663
Nsg2664
I175248
sg2665
I16400100
sg2656
F1e-07
sg2666
(dp4004
g2668
F397.0
sg2669
F14.0
sg2670
F0.06384705169524613
sg2893
F6.619494438171387
sg2894
F0.07114971211393795
ssg2672
I1
sg2673
(lp4005
g2896
ag2897
asg24
I73873
sg2678
g2898
sg2680
S'soma[0]'
p4006
sg25
I68312
ssg2680
S'soma[0]'
p4007
ssI165
(dp4008
g24
I73873
sg2656
F1e-07
sg4
(dp4009
g2661
I0
sg2662
I165
sg2663
Nsg2664
I175248
sg2665
I16500100
sg2656
F1e-07
sg2666
(dp4010
g2668
F788.0
sg2669
F23.0
sg2670
F0.11707446902528368
sg2893
F8.745574951171875
sg2894
F0.11035751046599651
ssg2672
I1
sg2673
(lp4011
g2896
ag2897
asg24
I73873
sg2678
g2898
sg2680
S'soma[0]'
p4012
sg25
I68312
ssg2680
S'soma[0]'
p4013
ssI166
(dp4014
g24
I73873
sg2656
F1e-07
sg4
(dp4015
g2661
I0
sg2662
I166
sg2663
Nsg2664
I175248
sg2665
I16600100
sg2656
F1e-07
sg2666
(dp4016
g2668
F760.0
sg2669
F22.0
sg2670
F0.11327122183319223
sg2893
F8.593660354614258
sg2894
F0.08227350748684559
ssg2672
I1
sg2673
(lp4017
g2896
ag2897
asg24
I73873
sg2678
g2898
sg2680
S'soma[0]'
p4018
sg25
I68312
ssg2680
S'soma[0]'
p4019
ssI167
(dp4020
g24
I73873
sg2656
F1e-07
sg4
(dp4021
g2661
I0
sg2662
I167
sg2663
Nsg2664
I175248
sg2665
I16700100
sg2656
F1e-07
sg2666
(dp4022
g2668
F851.0
sg2669
F24.0
sg2670
F0.12570207359978045
sg2893
F9.090189933776855
sg2894
F0.8290779938902317
ssg2672
I1
sg2673
(lp4023
g2896
ag2897
asg24
I73873
sg2678
g2898
sg2680
S'soma[0]'
p4024
sg25
I68312
ssg2680
S'soma[0]'
p4025
ssI168
(dp4026
g24
I73873
sg2656
g10
(g14
S'!\xab\x85<\x99\\\xc9?'
p4027
tp4028
Rp4029
sg4
(dp4030
g2661
I270
sg2662
I168
sg2663
Nsg2664
I175248
sg2665
I16800100
sg2656
g4029
sg2666
(dp4031
g2668
F1053.0
sg2669
F29.0
sg2670
F0.1530979536807047
sg2893
F10.184473037719727
sg2894
F0.2405848463967333
ssg2672
I1
sg2673
(lp4032
g2896
ag2897
asg24
I73873
sg2678
g2898
sg2680
S'dend[0]'
p4033
sg25
I68312
ssg2680
S'dend[0]'
p4034
ssI169
(dp4035
g24
I73873
sg2656
F1e-07
sg4
(dp4036
g2661
I0
sg2662
I169
sg2663
Nsg2664
I175248
sg2665
I16900100
sg2656
F1e-07
sg2666
(dp4037
g2668
F535.0
sg2669
F17.0
sg2670
F0.08259708813069666
sg2893
F7.368433475494385
sg2894
F0.11581076939549811
ssg2672
I1
sg2673
(lp4038
g2896
ag2897
asg24
I73873
sg2678
g2898
sg2680
S'soma[0]'
p4039
sg25
I68312
ssg2680
S'soma[0]'
p4040
ssI170
(dp4041
g24
I73873
sg2656
F1e-07
sg4
(dp4042
g2661
I0
sg2662
I170
sg2663
Nsg2664
I175248
sg2665
I17000100
sg2656
F1e-07
sg2666
(dp4043
g2668
F641.0
sg2669
F20.0
sg2670
F0.09709085521549046
sg2893
F7.947362899780273
sg2894
F0.06967701938016949
ssg2672
I1
sg2673
(lp4044
g2896
ag2897
asg24
I73873
sg2678
g2898
sg2680
S'soma[0]'
p4045
sg25
I68312
ssg2680
S'soma[0]'
p4046
ssI171
(dp4047
g24
I73873
sg2656
g10
(g14
S'\x04\x16\xeb\xc3\x1c&s?'
p4048
tp4049
Rp4050
sg4
(dp4051
g2661
I296
sg2662
I171
sg2663
Nsg2664
I175248
sg2665
I17100100
sg2656
g4050
sg2666
(dp4052
g2668
F684.0
sg2669
F21.0
sg2670
F0.10297964452758104
sg2893
F8.182580947875977
sg2894
F0.6381014311137393
ssg2672
I1
sg2673
(lp4053
g2896
ag2897
asg24
I73873
sg2678
g2898
sg2680
S'dend[26]'
p4054
sg25
I68312
ssg2680
S'dend[26]'
p4055
ssI172
(dp4056
g24
I73873
sg2656
g10
(g14
S'\xb9\x07\x14\x01\x1a\xa1\xd4?'
p4057
tp4058
Rp4059
sg4
(dp4060
g2661
I366
sg2662
I172
sg2663
Nsg2664
I175248
sg2665
I17200100
sg2656
g4059
sg2666
(dp4061
g2668
F923.0
sg2669
F26.0
sg2670
F0.13545595501198962
sg2893
F9.479792594909668
sg2894
F0.08954951626506223
ssg2672
I1
sg2673
(lp4062
g2896
ag2897
asg24
I73873
sg2678
g2898
sg2680
S'dend[96]'
p4063
sg25
I68312
ssg2680
S'dend[96]'
p4064
ssI173
(dp4065
g24
I73873
sg2656
g10
(g14
S"\n'\x03\x11\x88\x8f\xca?"
p4066
tp4067
Rp4068
sg4
(dp4069
g2661
I317
sg2662
I173
sg2663
Nsg2664
I175248
sg2665
I17300100
sg2656
g4068
sg2666
(dp4070
g2668
F694.0
sg2669
F21.0
sg2670
F0.10422938390320481
sg2893
F8.232499122619629
sg2894
F0.8585914578074442
ssg2672
I1
sg2673
(lp4071
g2896
ag2897
asg24
I73873
sg2678
g2898
sg2680
S'dend[47]'
p4072
sg25
I68312
ssg2680
S'dend[47]'
p4073
ssI174
(dp4074
g24
I73873
sg2656
g10
(g14
S'\x02\xbbw\xad!S\xa6?'
p4075
tp4076
Rp4077
sg4
(dp4078
g2661
I287
sg2662
I174
sg2663
Nsg2664
I175248
sg2665
I17400100
sg2656
g4077
sg2666
(dp4079
g2668
F537.0
sg2669
F17.0
sg2670
F0.08291904024684138
sg2893
F7.381293296813965
sg2894
F0.11066188626717753
ssg2672
I1
sg2673
(lp4080
g2896
ag2897
asg24
I73873
sg2678
g2898
sg2680
S'dend[17]'
p4081
sg25
I68312
ssg2680
S'dend[17]'
p4082
ssI175
(dp4083
g24
I73873
sg2656
g10
(g14
S'\xc7\xbd=K\xb0L\xef?'
p4084
tp4085
Rp4086
sg4
(dp4087
g2661
I285
sg2662
I175
sg2663
Nsg2664
I175248
sg2665
I17500100
sg2656
g4086
sg2666
(dp4088
g2668
F564.0
sg2669
F18.0
sg2670
F0.08662251864743084
sg2893
F7.52922248840332
sg2894
F0.24705817163992702
ssg2672
I1
sg2673
(lp4089
g2896
ag2897
asg24
I73873
sg2678
g2898
sg2680
S'dend[15]'
p4090
sg25
I68312
ssg2680
S'dend[15]'
p4091
ssI176
(dp4092
g24
I73873
sg2656
g10
(g14
S'e\x07H\x01p\xee\xed?'
p4093
tp4094
Rp4095
sg4
(dp4096
g2661
I385
sg2662
I176
sg2663
Nsg2664
I175248
sg2665
I17600100
sg2656
g4095
sg2666
(dp4097
g2668
F638.0
sg2669
F19.0
sg2670
F0.09668375586837777
sg2893
F7.9311017990112305
sg2894
F0.037467627906473865
ssg2672
I1
sg2673
(lp4098
g2896
ag2897
asg24
I73873
sg2678
g2898
sg2680
S'dend[115]'
p4099
sg25
I68312
ssg2680
S'dend[115]'
p4100
ssI177
(dp4101
g24
I73873
sg2656
g10
(g14
S'c o\x16\xe3\x8b\xd9?'
p4102
tp4103
Rp4104
sg4
(dp4105
g2661
I287
sg2662
I177
sg2663
Nsg2664
I175248
sg2665
I17700100
sg2656
g4104
sg2666
(dp4106
g2668
F881.0
sg2669
F25.0
sg2670
F0.12971974509324333
sg2893
F9.250669479370117
sg2894
F0.3200257469848291
ssg2672
I1
sg2673
(lp4107
g2896
ag2897
asg24
I73873
sg2678
g2898
sg2680
S'dend[17]'
p4108
sg25
I68312
ssg2680
S'dend[17]'
p4109
ssI178
(dp4110
g24
I74573
sg2656
g10
(g14
S'C\xc1m\xc0\xb3#\xe0?'
p4111
tp4112
Rp4113
sg4
(dp4114
g2661
I283
sg2662
I178
sg2663
Nsg2664
I175248
sg2665
I17800100
sg2656
g4113
sg2666
(dp4115
g2668
F668.0
sg2669
F16.0
sg2670
F0.2102202618007229
sg2671
F1.705622673034668
ssg2672
I117
sg2673
(lp4116
g2675
ag2676
ag2677
asg24
I74573
sg2678
g2679
sg2680
S'dend[13]'
p4117
sg25
I68312
ssg2680
S'dend[13]'
p4118
ssI179
(dp4119
g24
I74573
sg2656
g10
(g14
S'\xa7\xfa\x0bB \xc7\xe4?'
p4120
tp4121
Rp4122
sg4
(dp4123
g2661
I283
sg2662
I179
sg2663
Nsg2664
I175248
sg2665
I17900100
sg2656
g4122
sg2666
(dp4124
g2668
F666.0
sg2669
F16.0
sg2670
F0.20956148347662948
sg2671
F1.6916284561157227
ssg2672
I117
sg2673
(lp4125
g2675
ag2676
ag2677
asg24
I74573
sg2678
g2679
sg2680
S'dend[13]'
p4126
sg25
I68312
ssg2680
S'dend[13]'
p4127
ssI180
(dp4128
g24
I74573
sg2656
g10
(g14
S'\xf0\x88\x87\xefd\x1b\xd6?'
p4129
tp4130
Rp4131
sg4
(dp4132
g2661
I283
sg2662
I180
sg2663
Nsg2664
I175248
sg2665
I18000100
sg2656
g4131
sg2666
(dp4133
g2668
F657.0
sg2669
F13.0
sg2670
F0.20492240828703565
sg2671
F1.5930824279785156
ssg2672
I117
sg2673
(lp4134
g2675
ag2676
ag2677
asg24
I74573
sg2678
g2679
sg2680
S'dend[13]'
p4135
sg25
I68312
ssg2680
S'dend[13]'
p4136
ssI181
(dp4137
g24
I74742
sg2656
F1e-07
sg4
(dp4138
g2661
I0
sg2662
I181
sg2663
Nsg2664
I175248
sg2665
I18100100
sg2656
F1e-07
sg2666
(dp4139
g2668
F685.0
sg2669
F21.0
sg2670
F0.218690387875237
sg2671
F1.8855501413345337
ssg2672
I117
sg2673
(lp4140
g2675
ag2676
ag2677
asg24
I74742
sg2678
g2679
sg2680
S'soma[0]'
p4141
sg25
I68312
ssg2680
S'soma[0]'
p4142
ssI182
(dp4143
g24
I74742
sg2656
F1e-07
sg4
(dp4144
g2661
I0
sg2662
I182
sg2663
Nsg2664
I175248
sg2665
I18200100
sg2656
F1e-07
sg2666
(dp4145
g2668
F658.0
sg2669
F13.0
sg2670
F0.2055786486718654
sg2671
F1.607022762298584
ssg2672
I117
sg2673
(lp4146
g2675
ag2676
ag2677
asg24
I74742
sg2678
g2679
sg2680
S'soma[0]'
p4147
sg25
I68312
ssg2680
S'soma[0]'
p4148
ssI183
(dp4149
g24
I74742
sg2656
F1e-07
sg4
(dp4150
g2661
I0
sg2662
I183
sg2663
Nsg2664
I175248
sg2665
I18300100
sg2656
F1e-07
sg2666
(dp4151
g2668
F663.0
sg2669
F15.0
sg2670
F0.20793725285413395
sg2671
F1.6571255922317505
ssg2672
I117
sg2673
(lp4152
g2675
ag2676
ag2677
asg24
I74742
sg2678
g2679
sg2680
S'soma[0]'
p4153
sg25
I68312
ssg2680
S'soma[0]'
p4154
ssI184
(dp4155
g24
I74742
sg2656
g10
(g14
S'\xe5S\xd7E\x95\xdf\xd1?'
p4156
tp4157
Rp4158
sg4
(dp4159
g2661
I309
sg2662
I184
sg2663
Nsg2664
I175248
sg2665
I18400100
sg2656
g4158
sg2666
(dp4160
g2668
F669.0
sg2669
F17.0
sg2670
F0.21105380439023158
sg2671
F1.7233294248580933
ssg2672
I117
sg2673
(lp4161
g2675
ag2676
ag2677
asg24
I74742
sg2678
g2679
sg2680
S'dend[39]'
p4162
sg25
I68312
ssg2680
S'dend[39]'
p4163
ssI185
(dp4164
g24
I74873
sg2656
g10
(g14
S'c8V\x98{\x89\xdf?'
p4165
tp4166
Rp4167
sg4
(dp4168
g2661
I333
sg2662
I185
sg2663
Nsg2664
I175248
sg2665
I18500100
sg2656
g4167
sg2666
(dp4169
g2668
F686.0
sg2669
F21.0
sg2670
F0.21925923981407738
sg2671
F1.8976337909698486
ssg2672
I117
sg2673
(lp4170
g2675
ag2676
ag2677
asg24
I74873
sg2678
g2679
sg2680
S'dend[63]'
p4171
sg25
I68312
ssg2680
S'dend[63]'
p4172
ssI186
(dp4173
g24
I74873
sg2656
g10
(g14
S"^\xb0g\xe6`'\xe3?"
p4174
tp4175
Rp4176
sg4
(dp4177
g2661
I368
sg2662
I186
sg2663
Nsg2664
I175248
sg2665
I18600100
sg2656
g4176
sg2666
(dp4178
g2668
F687.0
sg2669
F22.0
sg2670
F0.2197652367198105
sg2671
F1.908382773399353
ssg2672
I117
sg2673
(lp4179
g2675
ag2676
ag2677
asg24
I74873
sg2678
g2679
sg2680
S'dend[98]'
p4180
sg25
I68312
ssg2680
S'dend[98]'
p4181
ssI187
(dp4182
g24
I74873
sg2656
g10
(g14
S'\xf0\x9af0e\xa4\xe7?'
p4183
tp4184
Rp4185
sg4
(dp4186
g2661
I379
sg2662
I187
sg2663
Nsg2664
I175248
sg2665
I18700100
sg2656
g4185
sg2666
(dp4187
g2668
F674.0
sg2669
F18.0
sg2670
F0.21309070898762544
sg2671
F1.7665985822677612
ssg2672
I117
sg2673
(lp4188
g2675
ag2676
ag2677
asg24
I74873
sg2678
g2679
sg2680
S'dend[109]'
p4189
sg25
I68312
ssg2680
S'dend[109]'
p4190
ssI188
(dp4191
g24
I74948
sg2656
g10
(g14
S'\x93l\\\x11\xd4n\xc9?'
p4192
tp4193
Rp4194
sg4
(dp4195
g2661
I350
sg2662
I188
sg2663
Nsg2664
I175248
sg2665
I18800100
sg2656
g4194
sg2666
(dp4196
g2668
F681.0
sg2669
F20.0
sg2670
F0.21681741395177473
sg2671
F1.845763087272644
ssg2672
I117
sg2673
(lp4197
g2675
ag2676
ag2677
asg24
I74948
sg2678
g2679
sg2680
S'dend[80]'
p4198
sg25
I68312
ssg2680
S'dend[80]'
p4199
ssI189
(dp4200
g24
I74948
sg2656
g10
(g14
S'\x85m\xfd\x1bF]\xc4?'
p4201
tp4202
Rp4203
sg4
(dp4204
g2661
I368
sg2662
I189
sg2663
Nsg2664
I175248
sg2665
I18900100
sg2656
g4203
sg2666
(dp4205
g2668
F678.0
sg2669
F19.0
sg2670
F0.21550854437927647
sg2671
F1.8179593086242676
ssg2672
I117
sg2673
(lp4206
g2675
ag2676
ag2677
asg24
I74948
sg2678
g2679
sg2680
S'dend[98]'
p4207
sg25
I68312
ssg2680
S'dend[98]'
p4208
ssI190
(dp4209
g24
I74948
sg2656
g10
(g14
S'\xd1\x04a\xc5M\xa9\xe3?'
p4210
tp4211
Rp4212
sg4
(dp4213
g2661
I322
sg2662
I190
sg2663
Nsg2664
I175248
sg2665
I19000100
sg2656
g4212
sg2666
(dp4214
g2668
F665.0
sg2669
F15.0
sg2670
F0.20907922451027794
sg2671
F1.6813842058181763
ssg2672
I117
sg2673
(lp4215
g2675
ag2676
ag2677
asg24
I74948
sg2678
g2679
sg2680
S'dend[52]'
p4216
sg25
I68312
ssg2680
S'dend[52]'
p4217
ssI191
(dp4218
g24
I74948
sg2656
g10
(g14
S'6\xce\xeas\x07T\xda?'
p4219
tp4220
Rp4221
sg4
(dp4222
g2661
I325
sg2662
I191
sg2663
Nsg2664
I175248
sg2665
I19100100
sg2656
g4221
sg2666
(dp4223
g2668
F669.0
sg2669
F16.0
sg2670
F0.21082658938003376
sg2671
F1.7185026407241821
ssg2672
I117
sg2673
(lp4224
g2675
ag2676
ag2677
asg24
I74948
sg2678
g2679
sg2680
S'dend[55]'
p4225
sg25
I68312
ssg2680
S'dend[55]'
p4226
ssI192
(dp4227
g24
I75177
sg2656
g10
(g14
S'\xb1\xd6^\xac\xf3\xf4\xdf?'
p4228
tp4229
Rp4230
sg4
(dp4231
g2661
I285
sg2662
I192
sg2663
Nsg2664
I175248
sg2665
I19200100
sg2656
g4230
sg2666
(dp4232
g2668
F1084.0
sg2669
F29.0
sg2670
F0.15728110891540978
sg2893
F10.3515625
sg2894
F0.14414168159976115
ssg2672
I1
sg2673
(lp4233
g2896
ag2897
asg24
I75177
sg2678
g2898
sg2680
S'dend[15]'
p4234
sg25
I68312
ssg2680
S'dend[15]'
p4235
ssI193
(dp4236
g24
I75177
sg2656
g10
(g14
S'K\xea{\xa6\xfaB\xe0?'
p4237
tp4238
Rp4239
sg4
(dp4240
g2661
I285
sg2662
I193
sg2663
Nsg2664
I175248
sg2665
I19300100
sg2656
g4239
sg2666
(dp4241
g2668
F472.0
sg2669
F16.0
sg2670
F0.07411259302691857
sg2893
F7.029534339904785
sg2894
F0.3864595285182097
ssg2672
I1
sg2673
(lp4242
g2896
ag2897
asg24
I75177
sg2678
g2898
sg2680
S'dend[15]'
p4243
sg25
I68312
ssg2680
S'dend[15]'
p4244
ssI194
(dp4245
g24
I75177
sg2656
g10
(g14
S'\xb1\xe7+m\xa4z\xe9?'
p4246
tp4247
Rp4248
sg4
(dp4249
g2661
I277
sg2662
I194
sg2663
Nsg2664
I175248
sg2665
I19400100
sg2656
g4248
sg2666
(dp4250
g2668
F440.0
sg2669
F15.0
sg2670
F0.06978827281227398
sg2893
F6.856806755065918
sg2894
F0.09894212815213559
ssg2672
I1
sg2673
(lp4251
g2896
ag2897
asg24
I75177
sg2678
g2898
sg2680
S'dend[7]'
p4252
sg25
I68312
ssg2680
S'dend[7]'
p4253
ssI195
(dp4254
g24
I75177
sg2656
g10
(g14
S'\xd95\xa3Z\xec:\xe0?'
p4255
tp4256
Rp4257
sg4
(dp4258
g2661
I285
sg2662
I195
sg2663
Nsg2664
I175248
sg2665
I19500100
sg2656
g4257
sg2666
(dp4259
g2668
F329.0
sg2669
F13.0
sg2670
F0.054633479875083615
sg2893
F6.251473903656006
sg2894
F0.0349209144761545
ssg2672
I1
sg2673
(lp4260
g2896
ag2897
asg24
I75177
sg2678
g2898
sg2680
S'dend[15]'
p4261
sg25
I68312
ssg2680
S'dend[15]'
p4262
ssI196
(dp4263
g24
I75177
sg2656
g10
(g14
S'\x99+Y\xbeT0\xe0?'
p4264
tp4265
Rp4266
sg4
(dp4267
g2661
I357
sg2662
I196
sg2663
Nsg2664
I175248
sg2665
I19600100
sg2656
g4266
sg2666
(dp4268
g2668
F382.0
sg2669
F14.0
sg2670
F0.061862692541861074
sg2893
F6.5402326583862305
sg2894
F0.012166878543107508
ssg2672
I1
sg2673
(lp4269
g2896
ag2897
asg24
I75177
sg2678
g2898
sg2680
S'dend[87]'
p4270
sg25
I68312
ssg2680
S'dend[87]'
p4271
ssI197
(dp4272
g24
I75177
sg2656
g10
(g14
S'\xeb\xb3\xe5\xe7\xee\x85\xd8?'
p4273
tp4274
Rp4275
sg4
(dp4276
g2661
I359
sg2662
I197
sg2663
Nsg2664
I175248
sg2665
I19700100
sg2656
g4275
sg2666
(dp4277
g2668
F933.0
sg2669
F26.0
sg2670
F0.1367919085631972
sg2893
F9.53315544128418
sg2894
F0.2177615748022819
ssg2672
I1
sg2673
(lp4278
g2896
ag2897
asg24
I75177
sg2678
g2898
sg2680
S'dend[89]'
p4279
sg25
I68312
ssg2680
S'dend[89]'
p4280
ssI198
(dp4281
g24
I75177
sg2656
g10
(g14
S'\xc9B\xc3\xcfI\xc7\xeb?'
p4282
tp4283
Rp4284
sg4
(dp4285
g2661
I283
sg2662
I198
sg2663
Nsg2664
I175248
sg2665
I19800100
sg2656
g4284
sg2666
(dp4286
g2668
F519.0
sg2669
F17.0
sg2670
F0.08055058103176042
sg2893
F7.286689281463623
sg2894
F0.1838140346729611
ssg2672
I1
sg2673
(lp4287
g2896
ag2897
asg24
I75177
sg2678
g2898
sg2680
S'dend[13]'
p4288
sg25
I68312
ssg2680
S'dend[13]'
p4289
ssI199
(dp4290
g24
I75180
sg2656
g10
(g14
S"\x83K\xaf'\xbe\xa5\xa1?"
p4291
tp4292
Rp4293
sg4
(dp4294
g2661
I346
sg2662
I199
sg2663
Nsg2664
I175248
sg2665
I19900100
sg2656
g4293
sg2666
(dp4295
g2668
F671.0
sg2669
F17.0
sg2670
F0.2116976202365765
sg2671
F1.7370057106018066
ssg2672
I117
sg2673
(lp4296
g2675
ag2676
ag2677
asg24
I75180
sg2678
g2679
sg2680
S'dend[76]'
p4297
sg25
I68312
ssg2680
S'dend[76]'
p4298
ssI200
(dp4299
g24
I75180
sg2656
F1e-07
sg4
(dp4300
g2661
I0
sg2662
I200
sg2663
Nsg2664
I175248
sg2665
I20000100
sg2656
F1e-07
sg2666
(dp4301
g2668
F683.0
sg2669
F21.0
sg2670
F0.21783867566085058
sg2671
F1.867457628250122
ssg2672
I117
sg2673
(lp4302
g2675
ag2676
ag2677
asg24
I75180
sg2678
g2679
sg2680
S'soma[0]'
p4303
sg25
I68312
ssg2680
S'soma[0]'
p4304
ssI201
(dp4305
g24
I75180
sg2656
F1e-07
sg4
(dp4306
g2661
I0
sg2662
I201
sg2663
Nsg2664
I175248
sg2665
I20100100
sg2656
F1e-07
sg2666
(dp4307
g2668
F661.0
sg2669
F14.0
sg2670
F0.2066374491542293
sg2671
F1.6295143365859985
ssg2672
I117
sg2673
(lp4308
g2675
ag2676
ag2677
asg24
I75180
sg2678
g2679
sg2680
S'soma[0]'
p4309
sg25
I68312
ssg2680
S'soma[0]'
p4310
ssI202
(dp4311
g24
I75180
sg2656
F1e-07
sg4
(dp4312
g2661
I0
sg2662
I202
sg2663
Nsg2664
I175248
sg2665
I20200100
sg2656
F1e-07
sg2666
(dp4313
g2668
F679.0
sg2669
F19.0
sg2670
F0.2156542801752033
sg2671
F1.8210554122924805
ssg2672
I117
sg2673
(lp4314
g2675
ag2676
ag2677
asg24
I75180
sg2678
g2679
sg2680
S'soma[0]'
p4315
sg25
I68312
ssg2680
S'soma[0]'
p4316
ssI203
(dp4317
g24
I76352
sg2656
F1e-07
sg4
(dp4318
g2661
I0
sg2662
I203
sg2663
Nsg2664
I175248
sg2665
I20300100
sg2656
F1e-07
sg2666
(dp4319
g2668
F678.0
sg2669
F19.0
sg2670
F0.21537652103131158
sg2671
F1.8151551485061646
ssg2672
I117
sg2673
(lp4320
g2675
ag2676
ag2677
asg24
I76352
sg2678
g2679
sg2680
S'soma[0]'
p4321
sg25
I68312
ssg2680
S'soma[0]'
p4322
ssI204
(dp4323
g24
I76352
sg2656
F1e-07
sg4
(dp4324
g2661
I0
sg2662
I204
sg2663
Nsg2664
I175248
sg2665
I20400100
sg2656
F1e-07
sg2666
(dp4325
g2668
F659.0
sg2669
F13.0
sg2670
F0.20581087642777307
sg2671
F1.6119557619094849
ssg2672
I117
sg2673
(lp4326
g2675
ag2676
ag2677
asg24
I76352
sg2678
g2679
sg2680
S'soma[0]'
p4327
sg25
I68312
ssg2680
S'soma[0]'
p4328
ssI205
(dp4329
g24
I76352
sg2656
F1e-07
sg4
(dp4330
g2661
I0
sg2662
I205
sg2663
Nsg2664
I175248
sg2665
I20500100
sg2656
F1e-07
sg2666
(dp4331
g2668
F680.0
sg2669
F20.0
sg2670
F0.21625113783188854
sg2671
F1.8337339162826538
ssg2672
I117
sg2673
(lp4332
g2675
ag2676
ag2677
asg24
I76352
sg2678
g2679
sg2680
S'soma[0]'
p4333
sg25
I68312
ssg2680
S'soma[0]'
p4334
ssI206
(dp4335
g24
I76352
sg2656
g10
(g14
S'\xcfF\x12\xd4+}\xd8?'
p4336
tp4337
Rp4338
sg4
(dp4339
g2661
I293
sg2662
I206
sg2663
Nsg2664
I175248
sg2665
I20600100
sg2656
g4338
sg2666
(dp4340
g2668
F676.0
sg2669
F18.0
sg2670
F0.2140912631325599
sg2671
F1.7878527641296387
ssg2672
I117
sg2673
(lp4341
g2675
ag2676
ag2677
asg24
I76352
sg2678
g2679
sg2680
S'dend[23]'
p4342
sg25
I68312
ssg2680
S'dend[23]'
p4343
ssI207
(dp4344
g24
I77274
sg2656
g10
(g14
S'tB\xd9\x92\x85\x06\xec?'
p4345
tp4346
Rp4347
sg4
(dp4348
g2661
I328
sg2662
I207
sg2663
Nsg2664
I175248
sg2665
I20700100
sg2656
g4347
sg2666
(dp4349
g2668
F678.0
sg2669
F19.0
sg2670
F0.215279043961085
sg2671
F1.8130844831466675
ssg2672
I117
sg2673
(lp4350
g2675
ag2676
ag2677
asg24
I77274
sg2678
g2679
sg2680
S'dend[58]'
p4351
sg25
I68312
ssg2680
S'dend[58]'
p4352
ssI208
(dp4353
g24
I77274
sg2656
g10
(g14
S'\xb4o\xc3\x1a\xacG\xea?'
p4354
tp4355
Rp4356
sg4
(dp4357
g2661
I328
sg2662
I208
sg2663
Nsg2664
I175248
sg2665
I20800100
sg2656
g4356
sg2666
(dp4358
g2668
F675.0
sg2669
F18.0
sg2670
F0.2139504516963984
sg2671
F1.784861445426941
ssg2672
I117
sg2673
(lp4359
g2675
ag2676
ag2677
asg24
I77274
sg2678
g2679
sg2680
S'dend[58]'
p4360
sg25
I68312
ssg2680
S'dend[58]'
p4361
ssI209
(dp4362
g24
I77274
sg2656
g10
(g14
S'b\x7f#t\xfa\xd5\xe8?'
p4363
tp4364
Rp4365
sg4
(dp4366
g2661
I328
sg2662
I209
sg2663
Nsg2664
I175248
sg2665
I20900100
sg2656
g4365
sg2666
(dp4367
g2668
F673.0
sg2669
F18.0
sg2670
F0.21288764859340475
sg2671
F1.7622846364974976
ssg2672
I117
sg2673
(lp4368
g2675
ag2676
ag2677
asg24
I77274
sg2678
g2679
sg2680
S'dend[58]'
p4369
sg25
I68312
ssg2680
S'dend[58]'
p4370
ssI210
(dp4371
g24
I77274
sg2656
g10
(g14
S'\xd54\xc2\x03\x1e\x9a\xe7?'
p4372
tp4373
Rp4374
sg4
(dp4375
g2661
I328
sg2662
I210
sg2663
Nsg2664
I175248
sg2665
I21000100
sg2656
g4374
sg2666
(dp4376
g2668
F655.0
sg2669
F12.0
sg2670
F0.2039041643266365
sg2671
F1.571452260017395
ssg2672
I117
sg2673
(lp4377
g2675
ag2676
ag2677
asg24
I77274
sg2678
g2679
sg2680
S'dend[58]'
p4378
sg25
I68312
ssg2680
S'dend[58]'
p4379
ssI211
(dp4380
g24
I77274
sg2656
g10
(g14
S'U\xb9J\x13\xf2k\xe6?'
p4381
tp4382
Rp4383
sg4
(dp4384
g2661
I328
sg2662
I211
sg2663
Nsg2664
I175248
sg2665
I21100100
sg2656
g4383
sg2666
(dp4385
g2668
F675.0
sg2669
F18.0
sg2670
F0.21406118665830087
sg2671
F1.7872141599655151
ssg2672
I117
sg2673
(lp4386
g2675
ag2676
ag2677
asg24
I77274
sg2678
g2679
sg2680
S'dend[58]'
p4387
sg25
I68312
ssg2680
S'dend[58]'
p4388
ssI212
(dp4389
g24
I77274
sg2656
g10
(g14
S'h&f\xee\x1d\xda\xe1?'
p4390
tp4391
Rp4392
sg4
(dp4393
g2661
I328
sg2662
I212
sg2663
Nsg2664
I175248
sg2665
I21200100
sg2656
g4392
sg2666
(dp4394
g2668
F676.0
sg2669
F18.0
sg2670
F0.21423313520005546
sg2671
F1.790866732597351
ssg2672
I117
sg2673
(lp4395
g2675
ag2676
ag2677
asg24
I77274
sg2678
g2679
sg2680
S'dend[58]'
p4396
sg25
I68312
ssg2680
S'dend[58]'
p4397
ssI213
(dp4398
g24
I77274
sg2656
g10
(g14
S'rz\xf3\x9b_A\xe2?'
p4399
tp4400
Rp4401
sg4
(dp4402
g2661
I360
sg2662
I213
sg2663
Nsg2664
I175248
sg2665
I21300100
sg2656
g4401
sg2666
(dp4403
g2668
F680.0
sg2669
F20.0
sg2670
F0.2160758306242427
sg2671
F1.830010175704956
ssg2672
I117
sg2673
(lp4404
g2675
ag2676
ag2677
asg24
I77274
sg2678
g2679
sg2680
S'dend[90]'
p4405
sg25
I68312
ssg2680
S'dend[90]'
p4406
ssI214
(dp4407
g24
I77274
sg2656
g10
(g14
S'\xb3\xb6\xc3\x81\xc3\xd3\xa0?'
p4408
tp4409
Rp4410
sg4
(dp4411
g2661
I377
sg2662
I214
sg2663
Nsg2664
I175248
sg2665
I21400100
sg2656
g4410
sg2666
(dp4412
g2668
F683.0
sg2669
F20.0
sg2670
F0.2176846315861402
sg2671
F1.8641854524612427
ssg2672
I117
sg2673
(lp4413
g2675
ag2676
ag2677
asg24
I77274
sg2678
g2679
sg2680
S'dend[107]'
p4414
sg25
I68312
ssg2680
S'dend[107]'
p4415
ssI215
(dp4416
g24
I78274
sg2656
F1e-07
sg4
(dp4417
g2661
I0
sg2662
I215
sg2663
Nsg2664
I175248
sg2665
I21500100
sg2656
F1e-07
sg2666
(dp4418
g2668
F669.0
sg2669
F17.0
sg2670
F0.211089588071193
sg2671
F1.7240893840789795
ssg2672
I117
sg2673
(lp4419
g2675
ag2676
ag2677
asg24
I78274
sg2678
g2679
sg2680
S'soma[0]'
p4420
sg25
I68312
ssg2680
S'soma[0]'
p4421
ssI216
(dp4422
g24
I78274
sg2656
F1e-07
sg4
(dp4423
g2661
I0
sg2662
I216
sg2663
Nsg2664
I175248
sg2665
I21600100
sg2656
F1e-07
sg2666
(dp4424
g2668
F671.0
sg2669
F17.0
sg2670
F0.21166236687128212
sg2671
F1.7362565994262695
ssg2672
I117
sg2673
(lp4425
g2675
ag2676
ag2677
asg24
I78274
sg2678
g2679
sg2680
S'soma[0]'
p4426
sg25
I68312
ssg2680
S'soma[0]'
p4427
ssI217
(dp4428
g24
I78274
sg2656
F1e-07
sg4
(dp4429
g2661
I0
sg2662
I217
sg2663
Nsg2664
I175248
sg2665
I21700100
sg2656
F1e-07
sg2666
(dp4430
g2668
F664.0
sg2669
F15.0
sg2670
F0.20846117948003828
sg2671
F1.668255090713501
ssg2672
I117
sg2673
(lp4431
g2675
ag2676
ag2677
asg24
I78274
sg2678
g2679
sg2680
S'soma[0]'
p4432
sg25
I68312
ssg2680
S'soma[0]'
p4433
ssI218
(dp4434
g24
I78445
sg2656
F1e-07
sg4
(dp4435
g2661
I0
sg2662
I218
sg2663
Nsg2664
I175248
sg2665
I21800100
sg2656
F1e-07
sg2666
(dp4436
g2668
F478.0
sg2669
F16.0
sg2670
F0.07487964413303179
sg2893
F7.060173034667969
sg2894
F0.02660308896517217
ssg2672
I1
sg2673
(lp4437
g2896
ag2897
asg24
I78445
sg2678
g2898
sg2680
S'soma[0]'
p4438
sg25
I68312
ssg2680
S'soma[0]'
p4439
ssI219
(dp4440
g24
I78445
sg2656
F1e-07
sg4
(dp4441
g2661
I0
sg2662
I219
sg2663
Nsg2664
I175248
sg2665
I21900100
sg2656
F1e-07
sg2666
(dp4442
g2668
F652.0
sg2669
F20.0
sg2670
F0.09856380698068229
sg2893
F8.006196975708008
sg2894
F0.04388402626820037
ssg2672
I1
sg2673
(lp4443
g2896
ag2897
asg24
I78445
sg2678
g2898
sg2680
S'soma[0]'
p4444
sg25
I68312
ssg2680
S'soma[0]'
p4445
ssI220
(dp4446
g24
I78445
sg2656
F1e-07
sg4
(dp4447
g2661
I0
sg2662
I220
sg2663
Nsg2664
I175248
sg2665
I22000100
sg2656
F1e-07
sg2666
(dp4448
g2668
F571.0
sg2669
F18.0
sg2670
F0.08762569280429174
sg2893
F7.5692925453186035
sg2894
F0.02851260165686234
ssg2672
I1
sg2673
(lp4449
g2896
ag2897
asg24
I78445
sg2678
g2898
sg2680
S'soma[0]'
p4450
sg25
I68312
ssg2680
S'soma[0]'
p4451
ssI221
(dp4452
g24
I78445
sg2656
g10
(g14
S'\x1f\x87\x92\x93\xf6~\xea?'
p4453
tp4454
Rp4455
sg4
(dp4456
g2661
I344
sg2662
I221
sg2663
Nsg2664
I175248
sg2665
I22100100
sg2656
g4455
sg2666
(dp4457
g2668
F565.0
sg2669
F18.0
sg2670
F0.0867774339550228
sg2893
F7.535410404205322
sg2894
F0.23721946325758894
ssg2672
I1
sg2673
(lp4458
g2896
ag2897
asg24
I78445
sg2678
g2898
sg2680
S'dend[74]'
p4459
sg25
I68312
ssg2680
S'dend[74]'
p4460
ssI222
(dp4461
g24
I83090
sg2656
F1e-07
sg4
(dp4462
g2661
I0
sg2662
I222
sg2663
Nsg2664
I175248
sg2665
I22200100
sg2656
F1e-07
sg2666
(dp4463
g2668
F675.0
sg2669
F18.0
sg2670
F0.21403022632459678
sg2671
F1.7865561246871948
ssg2672
I117
sg2673
(lp4464
g2675
ag2676
ag2677
asg24
I83090
sg2678
g2679
sg2680
S'soma[0]'
p4465
sg25
I68312
ssg2680
S'soma[0]'
p4466
ssI223
(dp4467
g24
I83090
sg2656
F1e-07
sg4
(dp4468
g2661
I0
sg2662
I223
sg2663
Nsg2664
I175248
sg2665
I22300100
sg2656
F1e-07
sg2666
(dp4469
g2668
F663.0
sg2669
F15.0
sg2670
F0.20804914945987849
sg2671
F1.659502625465393
ssg2672
I117
sg2673
(lp4470
g2675
ag2676
ag2677
asg24
I83090
sg2678
g2679
sg2680
S'soma[0]'
p4471
sg25
I68312
ssg2680
S'soma[0]'
p4472
ssI224
(dp4473
g24
I83090
sg2656
F1e-07
sg4
(dp4474
g2661
I0
sg2662
I224
sg2663
Nsg2664
I175248
sg2665
I22400100
sg2656
F1e-07
sg2666
(dp4475
g2668
F681.0
sg2669
F20.0
sg2670
F0.21679415582180617
sg2671
F1.8452694416046143
ssg2672
I117
sg2673
(lp4476
g2675
ag2676
ag2677
asg24
I83090
sg2678
g2679
sg2680
S'soma[0]'
p4477
sg25
I68312
ssg2680
S'soma[0]'
p4478
ssI225
(dp4479
g24
I83090
sg2656
g10
(g14
S'\xeb\xf8\xe2\r\x9cj\xe4?'
p4480
tp4481
Rp4482
sg4
(dp4483
g2661
I343
sg2662
I225
sg2663
Nsg2664
I175248
sg2665
I22500100
sg2656
g4482
sg2666
(dp4484
g2668
F673.0
sg2669
F18.0
sg2670
F0.2130426522869412
sg2671
F1.7655775547027588
ssg2672
I117
sg2673
(lp4485
g2675
ag2676
ag2677
asg24
I83090
sg2678
g2679
sg2680
S'dend[73]'
p4486
sg25
I68312
ssg2680
S'dend[73]'
p4487
ssI226
(dp4488
g24
I93923
sg2656
g10
(g14
S'f0\xdb\xdb\xfc\xf5\xe4?'
p4489
tp4490
Rp4491
sg4
(dp4492
g2661
I317
sg2662
I226
sg2663
Nsg2664
I175248
sg2665
I22600100
sg2656
g4491
sg2666
(dp4493
g2668
F666.0
sg2669
F16.0
sg2670
F0.20954318758611673
sg2671
F1.691239833831787
ssg2672
I117
sg2673
(lp4494
g2675
ag2676
ag2677
asg24
I93923
sg2678
g2679
sg2680
S'dend[47]'
p4495
sg25
I68312
ssg2680
S'dend[47]'
p4496
ssI227
(dp4497
g24
I93923
sg2656
g10
(g14
S'\x83\x94\xd4\x14D\x0f\xe0?'
p4498
tp4499
Rp4500
sg4
(dp4501
g2661
I336
sg2662
I227
sg2663
Nsg2664
I175248
sg2665
I22700100
sg2656
g4500
sg2666
(dp4502
g2668
F677.0
sg2669
F19.0
sg2670
F0.2150007039952722
sg2671
F1.8071715831756592
ssg2672
I117
sg2673
(lp4503
g2675
ag2676
ag2677
asg24
I93923
sg2678
g2679
sg2680
S'dend[66]'
p4504
sg25
I68312
ssg2680
S'dend[66]'
p4505
ssI228
(dp4506
g24
I107030
sg2656
g10
(g14
S'\x10\x02\x1e\xfd\xba\x81\xba?'
p4507
tp4508
Rp4509
sg4
(dp4510
g2661
I317
sg2662
I228
sg2663
Nsg2664
I175248
sg2665
I22800100
sg2656
g4509
sg2666
(dp4511
g2668
F680.0
sg2669
F20.0
sg2670
F0.2165132905432932
sg2671
F1.8393027782440186
ssg2672
I117
sg2673
(lp4512
g2675
ag2676
ag2677
asg24
I107030
sg2678
g2679
sg2680
S'dend[47]'
p4513
sg25
I68312
ssg2680
S'dend[47]'
p4514
ssI229
(dp4515
g24
I107030
sg2656
g10
(g14
S'_\xf8M3Qg\xc5?'
p4516
tp4517
Rp4518
sg4
(dp4519
g2661
I357
sg2662
I229
sg2663
Nsg2664
I175248
sg2665
I22900100
sg2656
g4518
sg2666
(dp4520
g2668
F680.0
sg2669
F20.0
sg2670
F0.21647195117439144
sg2671
F1.8384249210357666
ssg2672
I117
sg2673
(lp4521
g2675
ag2676
ag2677
asg24
I107030
sg2678
g2679
sg2680
S'dend[87]'
p4522
sg25
I68312
ssg2680
S'dend[87]'
p4523
ssI230
(dp4524
g24
I107030
sg2656
g10
(g14
S'\x1e\x84z\xf9\xb4h\xb2?'
p4525
tp4526
Rp4527
sg4
(dp4528
g2661
I366
sg2662
I230
sg2663
Nsg2664
I175248
sg2665
I23000100
sg2656
g4527
sg2666
(dp4529
g2668
F655.0
sg2669
F12.0
sg2670
F0.2038657038142129
sg2671
F1.5706353187561035
ssg2672
I117
sg2673
(lp4530
g2675
ag2676
ag2677
asg24
I107030
sg2678
g2679
sg2680
S'dend[96]'
p4531
sg25
I68312
ssg2680
S'dend[96]'
p4532
ssI231
(dp4533
g24
I134681
sg2656
g10
(g14
S'\x8bZ^\x12\xb4=\xe1?'
p4534
tp4535
Rp4536
sg4
(dp4537
g2661
I326
sg2662
I231
sg2663
Nsg2664
I175248
sg2665
I23100100
sg2656
g4536
sg2666
(dp4538
g2668
F683.0
sg2669
F20.0
sg2670
F0.21774357238456218
sg2671
F1.8654372692108154
ssg2672
I117
sg2673
(lp4539
g2675
ag2676
ag2677
asg24
I134681
sg2678
g2679
sg2680
S'dend[56]'
p4540
sg25
I68312
ssg2680
S'dend[56]'
p4541
ssI232
(dp4542
g24
I134681
sg2656
g10
(g14
S'\xae\x93\xd0F\xce5\xd6?'
p4543
tp4544
Rp4545
sg4
(dp4546
g2661
I358
sg2662
I232
sg2663
Nsg2664
I175248
sg2665
I23200100
sg2656
g4545
sg2666
(dp4547
g2668
F681.0
sg2669
F20.0
sg2670
F0.21680706016970402
sg2671
F1.8455435037612915
ssg2672
I117
sg2673
(lp4548
g2675
ag2676
ag2677
asg24
I134681
sg2678
g2679
sg2680
S'dend[88]'
p4549
sg25
I68312
ssg2680
S'dend[88]'
p4550
ssI233
(dp4551
g24
I135908
sg2656
g10
(g14
S'tPz\xbbM\xcb\xe4?'
p4552
tp4553
Rp4554
sg4
(dp4555
g2661
I282
sg2662
I233
sg2663
Nsg2664
I175248
sg2665
I23300100
sg2656
g4554
sg2666
(dp4556
g2668
F674.0
sg2669
F18.0
sg2670
F0.21342033805437866
sg2671
F1.773600459098816
ssg2672
I117
sg2673
(lp4557
g2675
ag2676
ag2677
asg24
I135908
sg2678
g2679
sg2680
S'dend[12]'
p4558
sg25
I68312
ssg2680
S'dend[12]'
p4559
ssI234
(dp4560
g24
I135908
sg2656
g10
(g14
S'w\xd5\xff\x94\xc5z\xe4?'
p4561
tp4562
Rp4563
sg4
(dp4564
g2661
I361
sg2662
I234
sg2663
Nsg2664
I175248
sg2665
I23400100
sg2656
g4563
sg2666
(dp4565
g2668
F685.0
sg2669
F21.0
sg2670
F0.21870036286040268
sg2671
F1.8857618570327759
ssg2672
I117
sg2673
(lp4566
g2675
ag2676
ag2677
asg24
I135908
sg2678
g2679
sg2680
S'dend[91]'
p4567
sg25
I68312
ssg2680
S'dend[91]'
p4568
ssI235
(dp4569
g24
I135908
sg2656
g10
(g14
S'\x94SL\xedl\x99\xd2?'
p4570
tp4571
Rp4572
sg4
(dp4573
g2661
I270
sg2662
I235
sg2663
Nsg2664
I175248
sg2665
I23500100
sg2656
g4572
sg2666
(dp4574
g2668
F684.0
sg2669
F21.0
sg2670
F0.2181372686345187
sg2671
F1.87380051612854
ssg2672
I117
sg2673
(lp4575
g2675
ag2676
ag2677
asg24
I135908
sg2678
g2679
sg2680
S'dend[0]'
p4576
sg25
I68312
ssg2680
S'dend[0]'
p4577
ssI236
(dp4578
g24
I136806
sg2656
g10
(g14
S'.Z\xbe\\\xbd8\xcf?'
p4579
tp4580
Rp4581
sg4
(dp4582
g2661
I305
sg2662
I236
sg2663
Nsg2664
I175248
sg2665
I23600100
sg2656
g4581
sg2666
(dp4583
g2668
F682.0
sg2669
F20.0
sg2670
F0.2172502778017109
sg2671
F1.854958176612854
ssg2672
I117
sg2673
(lp4584
g2675
ag2676
ag2677
asg24
I136806
sg2678
g2679
sg2680
S'dend[35]'
p4585
sg25
I68312
ssg2680
S'dend[35]'
p4586
ssI237
(dp4587
g24
I136806
sg2656
g10
(g14
S't\x8a\x0c\xb2\x0fE\xe8?'
p4588
tp4589
Rp4590
sg4
(dp4591
g2661
I368
sg2662
I237
sg2663
Nsg2664
I175248
sg2665
I23700100
sg2656
g4590
sg2666
(dp4592
g2668
F681.0
sg2669
F20.0
sg2670
F0.21678915570265983
sg2671
F1.8451632261276245
ssg2672
I117
sg2673
(lp4593
g2675
ag2676
ag2677
asg24
I136806
sg2678
g2679
sg2680
S'dend[98]'
p4594
sg25
I68312
ssg2680
S'dend[98]'
p4595
ssI238
(dp4596
g24
I136806
sg2656
g10
(g14
S'O\xf3DM\x7f\xaf\xed?'
p4597
tp4598
Rp4599
sg4
(dp4600
g2661
I333
sg2662
I238
sg2663
Nsg2664
I175248
sg2665
I23800100
sg2656
g4599
sg2666
(dp4601
g2668
F661.0
sg2669
F14.0
sg2670
F0.2066492171114121
sg2671
F1.629764437675476
ssg2672
I117
sg2673
(lp4602
g2675
ag2676
ag2677
asg24
I136806
sg2678
g2679
sg2680
S'dend[63]'
p4603
sg25
I68312
ssg2680
S'dend[63]'
p4604
ssI239
(dp4605
g24
I153967
sg2656
g10
(g14
S'\xabd~\x0eK#\xb8?'
p4606
tp4607
Rp4608
sg4
(dp4609
g2661
I334
sg2662
I239
sg2663
Nsg2664
I175248
sg2665
I23900100
sg2656
g4608
sg2666
(dp4610
g2668
F659.0
sg2669
F13.0
sg2670
F0.20587113038879912
sg2671
F1.6132358312606812
ssg2672
I117
sg2673
(lp4611
g2675
ag2676
ag2677
asg24
I153967
sg2678
g2679
sg2680
S'dend[64]'
p4612
sg25
I68312
ssg2680
S'dend[64]'
p4613
ssI240
(dp4614
g24
I153967
sg2656
g10
(g14
S'r\x93{\x99\x0b\xde\xe2?'
p4615
tp4616
Rp4617
sg4
(dp4618
g2661
I286
sg2662
I240
sg2663
Nsg2664
I175248
sg2665
I24000100
sg2656
g4617
sg2666
(dp4619
g2668
F659.0
sg2669
F13.0
sg2670
F0.2056182960812581
sg2671
F1.6078649759292603
ssg2672
I117
sg2673
(lp4620
g2675
ag2676
ag2677
asg24
I153967
sg2678
g2679
sg2680
S'dend[16]'
p4621
sg25
I68312
ssg2680
S'dend[16]'
p4622
ssI241
(dp4623
g24
I153967
sg2656
g10
(g14
S'\x1dmv\x18A\x0f\xc8?'
p4624
tp4625
Rp4626
sg4
(dp4627
g2661
I303
sg2662
I241
sg2663
Nsg2664
I175248
sg2665
I24100100
sg2656
g4626
sg2666
(dp4628
g2668
F665.0
sg2669
F15.0
sg2670
F0.20900085143062816
sg2671
F1.67971932888031
ssg2672
I117
sg2673
(lp4629
g2675
ag2676
ag2677
asg24
I153967
sg2678
g2679
sg2680
S'dend[33]'
p4630
sg25
I68312
ssg2680
S'dend[33]'
p4631
ssI242
(dp4632
g24
I158339
sg2656
F1e-07
sg4
(dp4633
g2661
I0
sg2662
I242
sg2663
Nsg2664
I175248
sg2665
I24200100
sg2656
F1e-07
sg2666
(dp4634
g2668
F661.0
sg2669
F14.0
sg2670
F0.20682164546257972
sg2671
F1.6334272623062134
ssg2672
I117
sg2673
(lp4635
g2675
ag2676
ag2677
asg24
I158339
sg2678
g2679
sg2680
S'soma[0]'
p4636
sg25
I68312
ssg2680
S'soma[0]'
p4637
ssI243
(dp4638
g24
I158339
sg2656
F1e-07
sg4
(dp4639
g2661
I0
sg2662
I243
sg2663
Nsg2664
I175248
sg2665
I24300100
sg2656
F1e-07
sg2666
(dp4640
g2668
F683.0
sg2669
F21.0
sg2670
F0.21783329674479923
sg2671
F1.8673429489135742
ssg2672
I117
sg2673
(lp4641
g2675
ag2676
ag2677
asg24
I158339
sg2678
g2679
sg2680
S'soma[0]'
p4642
sg25
I68312
ssg2680
S'soma[0]'
p4643
ssI244
(dp4644
g24
I158339
sg2656
g10
(g14
S'h\x81\x99\x8c\xefN\xd3?'
p4645
tp4646
Rp4647
sg4
(dp4648
g2661
I328
sg2662
I244
sg2663
Nsg2664
I175248
sg2665
I24400100
sg2656
g4647
sg2666
(dp4649
g2668
F661.0
sg2669
F14.0
sg2670
F0.20674344915481896
sg2671
F1.6317662000656128
ssg2672
I117
sg2673
(lp4650
g2675
ag2676
ag2677
asg24
I158339
sg2678
g2679
sg2680
S'dend[58]'
p4651
sg25
I68312
ssg2680
S'dend[58]'
p4652
ssI245
(dp4653
g24
I158339
sg2656
F1e-07
sg4
(dp4654
g2661
I0
sg2662
I245
sg2663
Nsg2664
I175248
sg2665
I24500100
sg2656
F1e-07
sg2666
(dp4655
g2668
F672.0
sg2669
F17.0
sg2670
F0.21230326598145835
sg2671
F1.749871015548706
ssg2672
I117
sg2673
(lp4656
g2675
ag2676
ag2677
asg24
I158339
sg2678
g2679
sg2680
S'soma[0]'
p4657
sg25
I68312
ssg2680
S'soma[0]'
p4658
ssI246
(dp4659
g24
I159357
sg2656
g10
(g14
S'[k\x1cc\xf7L\xd7?'
p4660
tp4661
Rp4662
sg4
(dp4663
g2661
I338
sg2662
I246
sg2663
Nsg2664
I175248
sg2665
I24600100
sg2656
g4662
sg2666
(dp4664
g2668
F686.0
sg2669
F21.0
sg2670
F0.2192406787657311
sg2671
F1.8972399234771729
ssg2672
I117
sg2673
(lp4665
g2675
ag2676
ag2677
asg24
I159357
sg2678
g2679
sg2680
S'dend[68]'
p4666
sg25
I68312
ssg2680
S'dend[68]'
p4667
ssI247
(dp4668
g24
I159357
sg2656
g10
(g14
S'\xc0\xbd\x0f\xaco-\xcd?'
p4669
tp4670
Rp4671
sg4
(dp4672
g2661
I359
sg2662
I247
sg2663
Nsg2664
I175248
sg2665
I24700100
sg2656
g4671
sg2666
(dp4673
g2668
F672.0
sg2669
F17.0
sg2670
F0.212416602015442
sg2671
F1.7522788047790527
ssg2672
I117
sg2673
(lp4674
g2675
ag2676
ag2677
asg24
I159357
sg2678
g2679
sg2680
S'dend[89]'
p4675
sg25
I68312
ssg2680
S'dend[89]'
p4676
ssI248
(dp4677
g24
I159357
sg2656
g10
(g14
S'\x85c\x99\xf9DW\xae?'
p4678
tp4679
Rp4680
sg4
(dp4681
g2661
I375
sg2662
I248
sg2663
Nsg2664
I175248
sg2665
I24800100
sg2656
g4680
sg2666
(dp4682
g2668
F674.0
sg2669
F18.0
sg2670
F0.2133404119074183
sg2671
F1.7719026803970337
ssg2672
I117
sg2673
(lp4683
g2675
ag2676
ag2677
asg24
I159357
sg2678
g2679
sg2680
S'dend[105]'
p4684
sg25
I68312
ssg2680
S'dend[105]'
p4685
ssI249
(dp4686
g24
I166979
sg2656
F1e-07
sg4
(dp4687
g2661
I0
sg2662
I249
sg2663
Nsg2664
I175248
sg2665
I24900100
sg2656
F1e-07
sg2666
(dp4688
g2668
F671.0
sg2669
F17.0
sg2670
F0.211727431553002
sg2671
F1.7376388311386108
ssg2672
I117
sg2673
(lp4689
g2675
ag2676
ag2677
asg24
I166979
sg2678
g2679
sg2680
S'soma[0]'
p4690
sg25
I68312
ssg2680
S'soma[0]'
p4691
ssI250
(dp4692
g24
I166979
sg2656
F1e-07
sg4
(dp4693
g2661
I0
sg2662
I250
sg2663
Nsg2664
I175248
sg2665
I25000100
sg2656
F1e-07
sg2666
(dp4694
g2668
F656.0
sg2669
F13.0
sg2670
F0.2044573719532993
sg2671
F1.5832040309906006
ssg2672
I117
sg2673
(lp4695
g2675
ag2676
ag2677
asg24
I166979
sg2678
g2679
sg2680
S'soma[0]'
p4696
sg25
I68312
ssg2680
S'soma[0]'
p4697
ssI251
(dp4698
g24
I166979
sg2656
F1e-07
sg4
(dp4699
g2661
I0
sg2662
I251
sg2663
Nsg2664
I175248
sg2665
I25100100
sg2656
F1e-07
sg2666
(dp4700
g2668
F677.0
sg2669
F19.0
sg2670
F0.21464809458294745
sg2671
F1.7996814250946045
ssg2672
I117
sg2673
(lp4701
g2675
ag2676
ag2677
asg24
I166979
sg2678
g2679
sg2680
S'soma[0]'
p4702
sg25
I68312
ssg2680
S'soma[0]'
p4703
ssI252
(dp4704
g24
I166979
sg2656
g10
(g14
S'z!!o\xf7\xc3\xe2?'
p4705
tp4706
Rp4707
sg4
(dp4708
g2661
I375
sg2662
I252
sg2663
Nsg2664
I175248
sg2665
I25200100
sg2656
g4707
sg2666
(dp4709
g2668
F659.0
sg2669
F13.0
sg2670
F0.20581561138908588
sg2671
F1.6120564937591553
ssg2672
I117
sg2673
(lp4710
g2675
ag2676
ag2677
asg24
I166979
sg2678
g2679
sg2680
S'dend[105]'
p4711
sg25
I68312
ssg2680
S'dend[105]'
p4712
ssI253
(dp4713
g24
I168065
sg2656
g10
(g14
S'$\xfeS\x01Ln\xe2?'
p4714
tp4715
Rp4716
sg4
(dp4717
g2661
I274
sg2662
I253
sg2663
Nsg2664
I175248
sg2665
I25300100
sg2656
g4716
sg2666
(dp4718
g2668
F679.0
sg2669
F19.0
sg2670
F0.21592883217196582
sg2671
F1.8268874883651733
ssg2672
I117
sg2673
(lp4719
g2675
ag2676
ag2677
asg24
I168065
sg2678
g2679
sg2680
S'dend[4]'
p4720
sg25
I68312
ssg2680
S'dend[4]'
p4721
ssI254
(dp4722
g24
I168065
sg2656
F1e-07
sg4
(dp4723
g2661
I0
sg2662
I254
sg2663
Nsg2664
I175248
sg2665
I25400100
sg2656
F1e-07
sg2666
(dp4724
g2668
F676.0
sg2669
F18.0
sg2670
F0.21432341512908656
sg2671
F1.7927844524383545
ssg2672
I117
sg2673
(lp4725
g2675
ag2676
ag2677
asg24
I168065
sg2678
g2679
sg2680
S'soma[0]'
p4726
sg25
I68312
ssg2680
S'soma[0]'
p4727
ssI255
(dp4728
g24
I168065
sg2656
F1e-07
sg4
(dp4729
g2661
I0
sg2662
I255
sg2663
Nsg2664
I175248
sg2665
I25500100
sg2656
F1e-07
sg2666
(dp4730
g2668
F668.0
sg2669
F16.0
sg2670
F0.21019652386134127
sg2671
F1.7051184177398682
ssg2672
I117
sg2673
(lp4731
g2675
ag2676
ag2677
asg24
I168065
sg2678
g2679
sg2680
S'soma[0]'
p4732
sg25
I68312
ssg2680
S'soma[0]'
p4733
ssI256
(dp4734
g24
I168513
sg2656
g10
(g14
S'd\x97\x82\xbcR\xec\xa6?'
p4735
tp4736
Rp4737
sg4
(dp4738
g2661
I271
sg2662
I256
sg2663
Nsg2664
I175248
sg2665
I25600100
sg2656
g4737
sg2666
(dp4739
g2668
F685.0
sg2669
F21.0
sg2670
F0.21891602456499723
sg2671
F1.890343427658081
ssg2672
I117
sg2673
(lp4740
g2675
ag2676
ag2677
asg24
I168513
sg2678
g2679
sg2680
S'dend[1]'
p4741
sg25
I68312
ssg2680
S'dend[1]'
p4742
ssI257
(dp4743
g24
I168513
sg2656
g10
(g14
S'\xd1@\xd9\xa0\x16\xfd\xe2?'
p4744
tp4745
Rp4746
sg4
(dp4747
g2661
I305
sg2662
I257
sg2663
Nsg2664
I175248
sg2665
I25700100
sg2656
g4746
sg2666
(dp4748
g2668
F676.0
sg2669
F18.0
sg2670
F0.21431760690987617
sg2671
F1.7926608324050903
ssg2672
I117
sg2673
(lp4749
g2675
ag2676
ag2677
asg24
I168513
sg2678
g2679
sg2680
S'dend[35]'
p4750
sg25
I68312
ssg2680
S'dend[35]'
p4751
ssI258
(dp4752
g24
I168513
sg2656
g10
(g14
S'\x7f\xe4\xe0\xc2\x80\xe1\xc3?'
p4753
tp4754
Rp4755
sg4
(dp4756
g2661
I273
sg2662
I258
sg2663
Nsg2664
I175248
sg2665
I25800100
sg2656
g4755
sg2666
(dp4757
g2668
F677.0
sg2669
F19.0
sg2670
F0.21459912876969114
sg2671
F1.7986409664154053
ssg2672
I117
sg2673
(lp4758
g2675
ag2676
ag2677
asg24
I168513
sg2678
g2679
sg2680
S'dend[3]'
p4759
sg25
I68312
ssg2680
S'dend[3]'
p4760
ssI259
(dp4761
g24
I168513
sg2656
g10
(g14
S'\xf9\xb2\x17g\xb5K\xb8?'
p4762
tp4763
Rp4764
sg4
(dp4765
g2661
I307
sg2662
I259
sg2663
Nsg2664
I175248
sg2665
I25900100
sg2656
g4764
sg2666
(dp4766
g2668
F686.0
sg2669
F21.0
sg2670
F0.21927194213695922
sg2671
F1.8979039192199707
ssg2672
I117
sg2673
(lp4767
g2675
ag2676
ag2677
asg24
I168513
sg2678
g2679
sg2680
S'dend[37]'
p4768
sg25
I68312
ssg2680
S'dend[37]'
p4769
ssI260
(dp4770
g24
I170012
sg2656
g10
(g14
S'uo\xae\xdf\xda.\xed?'
p4771
tp4772
Rp4773
sg4
(dp4774
g2661
I309
sg2662
I260
sg2663
Nsg2664
I175248
sg2665
I26000100
sg2656
g4773
sg2666
(dp4775
g2668
F667.0
sg2669
F16.0
sg2670
F0.20979012528850288
sg2671
F1.6964854001998901
ssg2672
I117
sg2673
(lp4776
g2675
ag2676
ag2677
asg24
I170012
sg2678
g2679
sg2680
S'dend[39]'
p4777
sg25
I68312
ssg2680
S'dend[39]'
p4778
ssI261
(dp4779
g24
I170012
sg2656
g10
(g14
S'\xc1\x99\x99\x7f\xc3\xc6\xcc?'
p4780
tp4781
Rp4782
sg4
(dp4783
g2661
I317
sg2662
I261
sg2663
Nsg2664
I175248
sg2665
I26100100
sg2656
g4782
sg2666
(dp4784
g2668
F669.0
sg2669
F16.0
sg2670
F0.21092400331744285
sg2671
F1.7205718755722046
ssg2672
I117
sg2673
(lp4785
g2675
ag2676
ag2677
asg24
I170012
sg2678
g2679
sg2680
S'dend[47]'
p4786
sg25
I68312
ssg2680
S'dend[47]'
p4787
ssI262
(dp4788
g24
I170012
sg2656
g10
(g14
S'!\xaf\xba\xd5\x95:\xd6?'
p4789
tp4790
Rp4791
sg4
(dp4792
g2661
I373
sg2662
I262
sg2663
Nsg2664
I175248
sg2665
I26200100
sg2656
g4791
sg2666
(dp4793
g2668
F679.0
sg2669
F19.0
sg2670
F0.2158323652268193
sg2671
F1.8248381614685059
ssg2672
I117
sg2673
(lp4794
g2675
ag2676
ag2677
asg24
I170012
sg2678
g2679
sg2680
S'dend[103]'
p4795
sg25
I68312
ssg2680
S'dend[103]'
p4796
ssI263
(dp4797
g24
I172041
sg2656
g10
(g14
S'\x9a\xe7\xbe\xd7\x18\x9d\xc9?'
p4798
tp4799
Rp4800
sg4
(dp4801
g2661
I278
sg2662
I263
sg2663
Nsg2664
I175248
sg2665
I26300100
sg2656
g4800
sg2666
(dp4802
g2668
F675.0
sg2669
F18.0
sg2670
F0.21359258963365726
sg2671
F1.7772597074508667
ssg2672
I117
sg2673
(lp4803
g2675
ag2676
ag2677
asg24
I172041
sg2678
g2679
sg2680
S'dend[8]'
p4804
sg25
I68312
ssg2680
S'dend[8]'
p4805
ssI264
(dp4806
g24
I172041
sg2656
g10
(g14
S'\xbb-\x06\xaaW\x00\xc4?'
p4807
tp4808
Rp4809
sg4
(dp4810
g2661
I273
sg2662
I264
sg2663
Nsg2664
I175248
sg2665
I26400100
sg2656
g4809
sg2666
(dp4811
g2668
F679.0
sg2669
F19.0
sg2670
F0.21603042550189366
sg2671
F1.8290455341339111
ssg2672
I117
sg2673
(lp4812
g2675
ag2676
ag2677
asg24
I172041
sg2678
g2679
sg2680
S'dend[3]'
p4813
sg25
I68312
ssg2680
S'dend[3]'
p4814
ssI265
(dp4815
g24
I172041
sg2656
g10
(g14
S'\xf0\xb3\xf9\x83E\xf1\x87?'
p4816
tp4817
Rp4818
sg4
(dp4819
g2661
I287
sg2662
I265
sg2663
Nsg2664
I175248
sg2665
I26500100
sg2656
g4818
sg2666
(dp4820
g2668
F667.0
sg2669
F16.0
sg2670
F0.20968085500796652
sg2671
F1.6941642761230469
ssg2672
I117
sg2673
(lp4821
g2675
ag2676
ag2677
asg24
I172041
sg2678
g2679
sg2680
S'dend[17]'
p4822
sg25
I68312
ssg2680
S'dend[17]'
p4823
ssI266
(dp4824
g24
I172041
sg2656
g10
(g14
S'6\x1d\x87\xa0\x8f\xc6\xd6?'
p4825
tp4826
Rp4827
sg4
(dp4828
g2661
I282
sg2662
I266
sg2663
Nsg2664
I175248
sg2665
I26600100
sg2656
g4827
sg2666
(dp4829
g2668
F686.0
sg2669
F21.0
sg2670
F0.21928812939136733
sg2671
F1.8982475996017456
ssg2672
I117
sg2673
(lp4830
g2675
ag2676
ag2677
asg24
I172041
sg2678
g2679
sg2680
S'dend[12]'
p4831
sg25
I68312
ssg2680
S'dend[12]'
p4832
ssI267
(dp4833
g24
I194151
sg2656
g10
(g14
S'\x02\x82\xf1\x98\x141\xdd?'
p4834
tp4835
Rp4836
sg4
(dp4837
g2661
I348
sg2662
I267
sg2663
Nsg2664
I175248
sg2665
I26700100
sg2656
g4836
sg2666
(dp4838
g2668
F660.0
sg2669
F14.0
sg2670
F0.2062120097236316
sg2671
F1.6204769611358643
ssg2672
I117
sg2673
(lp4839
g2675
ag2676
ag2677
asg24
I194151
sg2678
g2679
sg2680
S'dend[78]'
p4840
sg25
I68312
ssg2680
S'dend[78]'
p4841
ssI268
(dp4842
g24
I194151
sg2656
g10
(g14
S'\xf1\xc4y\x964\xb4\xca?'
p4843
tp4844
Rp4845
sg4
(dp4846
g2661
I368
sg2662
I268
sg2663
Nsg2664
I175248
sg2665
I26800100
sg2656
g4845
sg2666
(dp4847
g2668
F680.0
sg2669
F20.0
sg2670
F0.21656266040658154
sg2671
F1.840351939201355
ssg2672
I117
sg2673
(lp4848
g2675
ag2676
ag2677
asg24
I194151
sg2678
g2679
sg2680
S'dend[98]'
p4849
sg25
I68312
ssg2680
S'dend[98]'
p4850
ssI269
(dp4851
g24
I194151
sg2656
g10
(g14
S'C\xc5\x7f\xb5h\x93\xd7?'
p4852
tp4853
Rp4854
sg4
(dp4855
g2661
I353
sg2662
I269
sg2663
Nsg2664
I175248
sg2665
I26900100
sg2656
g4854
sg2666
(dp4856
g2668
F662.0
sg2669
F14.0
sg2670
F0.20755896101164845
sg2671
F1.6490896940231323
ssg2672
I117
sg2673
(lp4857
g2675
ag2676
ag2677
asg24
I194151
sg2678
g2679
sg2680
S'dend[83]'
p4858
sg25
I68312
ssg2680
S'dend[83]'
p4859
ssI270
(dp4860
g24
I194151
sg2656
g10
(g14
S'\x96km\x8cm\x06\xd0?'
p4861
tp4862
Rp4863
sg4
(dp4864
g2661
I353
sg2662
I270
sg2663
Nsg2664
I175248
sg2665
I27000100
sg2656
g4863
sg2666
(dp4865
g2668
F668.0
sg2669
F16.0
sg2670
F0.21030664012163222
sg2671
F1.707457423210144
ssg2672
I117
sg2673
(lp4866
g2675
ag2676
ag2677
asg24
I194151
sg2678
g2679
sg2680
S'dend[83]'
p4867
sg25
I68312
ssg2680
S'dend[83]'
p4868
ssI271
(dp4869
g24
I197535
sg2656
g10
(g14
S'\xde./>\xdb\x9b\xef?'
p4870
tp4871
Rp4872
sg4
(dp4873
g2661
I309
sg2662
I271
sg2663
Nsg2664
I175248
sg2665
I27100100
sg2656
g4872
sg2666
(dp4874
g2668
F683.0
sg2669
F21.0
sg2670
F0.21790473784108705
sg2671
F1.8688606023788452
ssg2672
I117
sg2673
(lp4875
g2675
ag2676
ag2677
asg24
I197535
sg2678
g2679
sg2680
S'dend[39]'
p4876
sg25
I68312
ssg2680
S'dend[39]'
p4877
ssI272
(dp4878
g24
I197535
sg2656
g10
(g14
S'\xea\xe3\x9c\x13\xc3\x98\xc3?'
p4879
tp4880
Rp4881
sg4
(dp4882
g2661
I317
sg2662
I272
sg2663
Nsg2664
I175248
sg2665
I27200100
sg2656
g4881
sg2666
(dp4883
g2668
F677.0
sg2669
F19.0
sg2670
F0.214790118169205
sg2671
F1.8026982545852661
ssg2672
I117
sg2673
(lp4884
g2675
ag2676
ag2677
asg24
I197535
sg2678
g2679
sg2680
S'dend[47]'
p4885
sg25
I68312
ssg2680
S'dend[47]'
p4886
ssI273
(dp4887
g24
I197535
sg2656
g10
(g14
S'\xac\xfd}\xe7\x1c\xbe\xc3?'
p4888
tp4889
Rp4890
sg4
(dp4891
g2661
I339
sg2662
I273
sg2663
Nsg2664
I175248
sg2665
I27300100
sg2656
g4890
sg2666
(dp4892
g2668
F673.0
sg2669
F18.0
sg2670
F0.21269072470904546
sg2671
F1.7581019401550293
ssg2672
I117
sg2673
(lp4893
g2675
ag2676
ag2677
asg24
I197535
sg2678
g2679
sg2680
S'dend[69]'
p4894
sg25
I68312
ssg2680
S'dend[69]'
p4895
ssI274
(dp4896
g24
I199731
sg2656
F1e-07
sg4
(dp4897
g2661
I0
sg2662
I274
sg2663
Nsg2664
I175248
sg2665
I27400100
sg2656
F1e-07
sg2666
(dp4898
g2668
F674.0
sg2669
F18.0
sg2670
F0.21332275997164407
sg2671
F1.7715275287628174
ssg2672
I117
sg2673
(lp4899
g2675
ag2676
ag2677
asg24
I199731
sg2678
g2679
sg2680
S'soma[0]'
p4900
sg25
I68312
ssg2680
S'soma[0]'
p4901
ssI275
(dp4902
g24
I199731
sg2656
F1e-07
sg4
(dp4903
g2661
I0
sg2662
I275
sg2663
Nsg2664
I175248
sg2665
I27500100
sg2656
F1e-07
sg2666
(dp4904
g2668
F666.0
sg2669
F16.0
sg2670
F0.20951379294628675
sg2671
F1.6906152963638306
ssg2672
I117
sg2673
(lp4905
g2675
ag2676
ag2677
asg24
I199731
sg2678
g2679
sg2680
S'soma[0]'
p4906
sg25
I68312
ssg2680
S'soma[0]'
p4907
ssI276
(dp4908
g24
I199731
sg2656
F1e-07
sg4
(dp4909
g2661
I0
sg2662
I276
sg2663
Nsg2664
I175248
sg2665
I27600100
sg2656
F1e-07
sg2666
(dp4910
g2668
F683.0
sg2669
F21.0
sg2670
F0.2180467614273446
sg2671
F1.8718780279159546
ssg2672
I117
sg2673
(lp4911
g2675
ag2676
ag2677
asg24
I199731
sg2678
g2679
sg2680
S'soma[0]'
p4912
sg25
I68312
ssg2680
S'soma[0]'
p4913
ssI277
(dp4914
g24
I199867
sg2656
g10
(g14
S'\xb7/\xed\xf6\xb4\xcf\xa3?'
p4915
tp4916
Rp4917
sg4
(dp4918
g2661
I271
sg2662
I277
sg2663
Nsg2664
I175248
sg2665
I27700100
sg2656
g4917
sg2666
(dp4919
g2668
F686.0
sg2669
F21.0
sg2670
F0.2193739395169191
sg2671
F1.9000704288482666
ssg2672
I117
sg2673
(lp4920
g2675
ag2676
ag2677
asg24
I199867
sg2678
g2679
sg2680
S'dend[1]'
p4921
sg25
I68312
ssg2680
S'dend[1]'
p4922
ssI278
(dp4923
g24
I199867
sg2656
g10
(g14
S'\xcc\x0b0\xc5J\xb0\xdc?'
p4924
tp4925
Rp4926
sg4
(dp4927
g2661
I338
sg2662
I278
sg2663
Nsg2664
I175248
sg2665
I27800100
sg2656
g4926
sg2666
(dp4928
g2668
F680.0
sg2669
F20.0
sg2670
F0.21627212318042696
sg2671
F1.8341796398162842
ssg2672
I117
sg2673
(lp4929
g2675
ag2676
ag2677
asg24
I199867
sg2678
g2679
sg2680
S'dend[68]'
p4930
sg25
I68312
ssg2680
S'dend[68]'
p4931
ssI279
(dp4932
g24
I199867
sg2656
g10
(g14
S'\t\xf5\x14\xe8\xeb \xe7?'
p4933
tp4934
Rp4935
sg4
(dp4936
g2661
I367
sg2662
I279
sg2663
Nsg2664
I175248
sg2665
I27900100
sg2656
g4935
sg2666
(dp4937
g2668
F676.0
sg2669
F18.0
sg2670
F0.21409174294197295
sg2671
F1.78786301612854
ssg2672
I117
sg2673
(lp4938
g2675
ag2676
ag2677
asg24
I199867
sg2678
g2679
sg2680
S'dend[97]'
p4939
sg25
I68312
ssg2680
S'dend[97]'
p4940
ssI280
(dp4941
g24
I201326
sg2656
F1e-07
sg4
(dp4942
g2661
I0
sg2662
I280
sg2663
Nsg2664
I175248
sg2665
I28000100
sg2656
F1e-07
sg2666
(dp4943
g2668
F677.0
sg2669
F19.0
sg2670
F0.2150154013151872
sg2671
F1.8074839115142822
ssg2672
I117
sg2673
(lp4944
g2675
ag2676
ag2677
asg24
I201326
sg2678
g2679
sg2680
S'soma[0]'
p4945
sg25
I68312
ssg2680
S'soma[0]'
p4946
ssI281
(dp4947
g24
I201326
sg2656
F1e-07
sg4
(dp4948
g2661
I0
sg2662
I281
sg2663
Nsg2664
I175248
sg2665
I28100100
sg2656
F1e-07
sg2666
(dp4949
g2668
F655.0
sg2669
F12.0
sg2670
F0.20405733716846533
sg2671
F1.5747061967849731
ssg2672
I117
sg2673
(lp4950
g2675
ag2676
ag2677
asg24
I201326
sg2678
g2679
sg2680
S'soma[0]'
p4951
sg25
I68312
ssg2680
S'soma[0]'
p4952
ssI282
(dp4953
g24
I201326
sg2656
F1e-07
sg4
(dp4954
g2661
I0
sg2662
I282
sg2663
Nsg2664
I175248
sg2665
I28200100
sg2656
F1e-07
sg2666
(dp4955
g2668
F687.0
sg2669
F22.0
sg2670
F0.2198826132541144
sg2671
F1.9108761548995972
ssg2672
I117
sg2673
(lp4956
g2675
ag2676
ag2677
asg24
I201326
sg2678
g2679
sg2680
S'soma[0]'
p4957
sg25
I68312
ssg2680
S'soma[0]'
p4958
ssI283
(dp4959
g24
I201326
sg2656
g10
(g14
S'\xb1\x1d-\xee\x90B\x88?'
p4960
tp4961
Rp4962
sg4
(dp4963
g2661
I304
sg2662
I283
sg2663
Nsg2664
I175248
sg2665
I28300100
sg2656
g4962
sg2666
(dp4964
g2668
F664.0
sg2669
F15.0
sg2670
F0.2081220931172229
sg2671
F1.6610522270202637
ssg2672
I117
sg2673
(lp4965
g2675
ag2676
ag2677
asg24
I201326
sg2678
g2679
sg2680
S'dend[34]'
p4966
sg25
I68312
ssg2680
S'dend[34]'
p4967
ssI284
(dp4968
g24
I212841
sg2656
F1e-07
sg4
(dp4969
g2661
I0
sg2662
I284
sg2663
Nsg2664
I175248
sg2665
I28400100
sg2656
F1e-07
sg2666
(dp4970
g2668
F1031.0
sg2669
F28.0
sg2670
F0.1501346507458169
sg2893
F10.066108703613281
sg2894
F0.03439661512149898
ssg2672
I1
sg2673
(lp4971
g2896
ag2897
asg24
I212841
sg2678
g2898
sg2680
S'soma[0]'
p4972
sg25
I68312
ssg2680
S'soma[0]'
p4973
ssI285
(dp4974
g24
I212841
sg2656
F1e-07
sg4
(dp4975
g2661
I0
sg2662
I285
sg2663
Nsg2664
I175248
sg2665
I28500100
sg2656
F1e-07
sg2666
(dp4976
g2668
F662.0
sg2669
F20.0
sg2670
F0.09987678018631832
sg2893
F8.058642387390137
sg2894
F0.19720097881764775
ssg2672
I1
sg2673
(lp4977
g2896
ag2897
asg24
I212841
sg2678
g2898
sg2680
S'soma[0]'
p4978
sg25
I68312
ssg2680
S'soma[0]'
p4979
ssI286
(dp4980
g24
I212841
sg2656
F1e-07
sg4
(dp4981
g2661
I0
sg2662
I286
sg2663
Nsg2664
I175248
sg2665
I28600100
sg2656
F1e-07
sg2666
(dp4982
g2668
F912.0
sg2669
F26.0
sg2670
F0.13398672808303055
sg2893
F9.421106338500977
sg2894
F0.22074886553811085
ssg2672
I1
sg2673
(lp4983
g2896
ag2897
asg24
I212841
sg2678
g2898
sg2680
S'soma[0]'
p4984
sg25
I68312
ssg2680
S'soma[0]'
p4985
ssI287
(dp4986
g24
I212841
sg2656
F1e-07
sg4
(dp4987
g2661
I0
sg2662
I287
sg2663
Nsg2664
I175248
sg2665
I28700100
sg2656
F1e-07
sg2666
(dp4988
g2668
F914.0
sg2669
F26.0
sg2670
F0.13423279455253515
sg2893
F9.430935859680176
sg2894
F0.28119452524003047
ssg2672
I1
sg2673
(lp4989
g2896
ag2897
asg24
I212841
sg2678
g2898
sg2680
S'soma[0]'
p4990
sg25
I68312
ssg2680
S'soma[0]'
p4991
ssI288
(dp4992
g24
I212841
sg2656
F1e-07
sg4
(dp4993
g2661
I0
sg2662
I288
sg2663
Nsg2664
I175248
sg2665
I28800100
sg2656
F1e-07
sg2666
(dp4994
g2668
F379.0
sg2669
F14.0
sg2670
F0.061495537328383316
sg2893
F6.525567054748535
sg2894
F0.10812438915355792
ssg2672
I1
sg2673
(lp4995
g2896
ag2897
asg24
I212841
sg2678
g2898
sg2680
S'soma[0]'
p4996
sg25
I68312
ssg2680
S'soma[0]'
p4997
ssI289
(dp4998
g24
I212841
sg2656
F1e-07
sg4
(dp4999
g2661
I0
sg2662
I289
sg2663
Nsg2664
I175248
sg2665
I28900100
sg2656
F1e-07
sg2666
(dp5000
g2668
F541.0
sg2669
F17.0
sg2670
F0.08351657973795566
sg2893
F7.405160903930664
sg2894
F0.34158295341099415
ssg2672
I1
sg2673
(lp5001
g2896
ag2897
asg24
I212841
sg2678
g2898
sg2680
S'soma[0]'
p5002
sg25
I68312
ssg2680
S'soma[0]'
p5003
ssI290
(dp5004
g24
I212841
sg2656
F1e-07
sg4
(dp5005
g2661
I0
sg2662
I290
sg2663
Nsg2664
I175248
sg2665
I29000100
sg2656
F1e-07
sg2666
(dp5006
g2668
F1039.0
sg2669
F28.0
sg2670
F0.151218716981746
sg2893
F10.109410285949707
sg2894
F0.09573805245043333
ssg2672
I1
sg2673
(lp5007
g2896
ag2897
asg24
I212841
sg2678
g2898
sg2680
S'soma[0]'
p5008
sg25
I68312
ssg2680
S'soma[0]'
p5009
ssI291
(dp5010
g24
I212841
sg2656
F1e-07
sg4
(dp5011
g2661
I0
sg2662
I291
sg2663
Nsg2664
I175248
sg2665
I29100100
sg2656
F1e-07
sg2666
(dp5012
g2668
F1018.0
sg2669
F28.0
sg2670
F0.14837412899689317
sg2893
F9.995787620544434
sg2894
F0.020047034039489937
ssg2672
I1
sg2673
(lp5013
g2896
ag2897
asg24
I212841
sg2678
g2898
sg2680
S'soma[0]'
p5014
sg25
I68312
ssg2680
S'soma[0]'
p5015
ssI292
(dp5016
g24
I212841
sg2656
g10
(g14
S':\xa1\x9a\xab\xea\xd2\xed?'
p5017
tp5018
Rp5019
sg4
(dp5020
g2661
I356
sg2662
I292
sg2663
Nsg2664
I175248
sg2665
I29200100
sg2656
g5019
sg2666
(dp5021
g2668
F987.0
sg2669
F27.0
sg2670
F0.14417390264833496
sg2893
F9.82801628112793
sg2894
F0.085311689236178
ssg2672
I1
sg2673
(lp5022
g2896
ag2897
asg24
I212841
sg2678
g2898
sg2680
S'dend[86]'
p5023
sg25
I68312
ssg2680
S'dend[86]'
p5024
ssas.