(dp0
I73500
(lp1
(dp2
I0
(dp3
S'info_dict'
p4
(dp5
S'post_synapse_id'
p6
I0
sS'post_netcon'
p7
(dp8
S'delay'
p9
cnumpy.core.multiarray
scalar
p10
(cnumpy
dtype
p11
(S'f8'
p12
I0
I1
tp13
Rp14
(I3
S'<'
p15
NNNI-1
I-1
I0
tp16
bS'\x00\x00\x00\xa06\x12\x12@'
p17
tp18
Rp19
sS'weight'
p20
g10
(g14
S'\x00\x00\x00\x80\x81M\xc5?'
p21
tp22
Rp23
ssS'pre_cell_id'
p24
I59102
sS'post_cell_id'
p25
I73500
sssI1
(dp26
g4
(dp27
g6
I1
sg7
(dp28
g9
g10
(g14
S'\x00\x00\x00\xa0\x06f\x11@'
p29
tp30
Rp31
sg20
g10
(g14
S'\x00\x00\x00\xe0:p\xc6?'
p32
tp33
Rp34
ssg24
I59102
sg25
I73500
sssI2
(dp35
g4
(dp36
g6
I2
sg7
(dp37
g9
g10
(g14
S'\x00\x00\x00`\xf0y\x11@'
p38
tp39
Rp40
sg20
g10
(g14
S'\x00\x00\x00\x80\x03a\xbc?'
p41
tp42
Rp43
ssg24
I59102
sg25
I73500
sssI3
(dp44
g4
(dp45
g6
I3
sg7
(dp46
g9
g10
(g14
S'\x00\x00\x00`\xe3\x92\x11@'
p47
tp48
Rp49
sg20
g10
(g14
S'\x00\x00\x00\xc0\xce8\xbd?'
p50
tp51
Rp52
ssg24
I59102
sg25
I73500
sssI4
(dp53
g4
(dp54
g6
I4
sg7
(dp55
g9
g10
(g14
S'\x00\x00\x00\x00\xb5\xa4\x11@'
p56
tp57
Rp58
sg20
g10
(g14
S'\x00\x00\x00\x80<\xa6\xb9?'
p59
tp60
Rp61
ssg24
I59102
sg25
I73500
sssI5
(dp62
g4
(dp63
g6
I5
sg7
(dp64
g9
g10
(g14
S'\x00\x00\x00\x80\r\xbe\x11@'
p65
tp66
Rp67
sg20
g10
(g14
S'\x00\x00\x00\xe0\xc4\x0c\xa7?'
p68
tp69
Rp70
ssg24
I59102
sg25
I73500
sssI6
(dp71
g4
(dp72
g6
I6
sg7
(dp73
g9
g10
(g14
S'\x00\x00\x00@\xa1\xd1\x11@'
p74
tp75
Rp76
sg20
g10
(g14
S'\x00\x00\x00\x80\xef@\xb2?'
p77
tp78
Rp79
ssg24
I59102
sg25
I73500
sssI7
(dp80
g4
(dp81
g6
I7
sg7
(dp82
g9
g10
(g14
S'\x00\x00\x00\x80\xa2\xe6\x11@'
p83
tp84
Rp85
sg20
g10
(g14
S'\x00\x00\x00@\xa0Q\xbc?'
p86
tp87
Rp88
ssg24
I59102
sg25
I73500
sssI8
(dp89
g4
(dp90
g6
I8
sg7
(dp91
g9
g10
(g14
S'\x00\x00\x00`^\xfd\x11@'
p92
tp93
Rp94
sg20
g10
(g14
S'\x00\x00\x00@>\x8c\xa2?'
p95
tp96
Rp97
ssg24
I59102
sg25
I73500
sssI9
(dp98
g4
(dp99
g6
I9
sg7
(dp100
g9
g10
(g14
S'\x00\x00\x00`\xbd\xae\xed?'
p101
tp102
Rp103
sg20
g10
(g14
S'\x00\x00\x00\x00?\xc6\xbd?'
p104
tp105
Rp106
ssg24
I63515
sg25
I73500
sssI10
(dp107
g4
(dp108
g6
I10
sg7
(dp109
g9
g10
(g14
S'\x00\x00\x00\x00\xdc\xd9\xed?'
p110
tp111
Rp112
sg20
g10
(g14
S'\x00\x00\x00\x00\\\x02\xc1?'
p113
tp114
Rp115
ssg24
I63515
sg25
I73500
sssI11
(dp116
g4
(dp117
g6
I11
sg7
(dp118
g9
g10
(g14
S'\x00\x00\x00\xa0\x80\x1c\xee?'
p119
tp120
Rp121
sg20
g10
(g14
S'\x00\x00\x00\xc0\x98P\xc0?'
p122
tp123
Rp124
ssg24
I63515
sg25
I73500
sssI12
(dp125
g4
(dp126
g6
I12
sg7
(dp127
g9
g10
(g14
S'\x00\x00\x00 \xe2\xbc\xee?'
p128
tp129
Rp130
sg20
g10
(g14
S'\x00\x00\x00\x80\xe2S\xa3?'
p131
tp132
Rp133
ssg24
I63515
sg25
I73500
sssI13
(dp134
g4
(dp135
g6
I13
sg7
(dp136
g9
g10
(g14
S'\x00\x00\x00\xc0\x8e\xcc\xf9?'
p137
tp138
Rp139
sg20
g10
(g14
S'\x00\x00\x00`\xd4\x84\xbd?'
p140
tp141
Rp142
ssg24
I63970
sg25
I73500
sssI14
(dp143
g4
(dp144
g6
I14
sg7
(dp145
g9
g10
(g14
S'\x00\x00\x00@t\xed\xf9?'
p146
tp147
Rp148
sg20
g10
(g14
S'\x00\x00\x00\x00o\xa0\xad?'
p149
tp150
Rp151
ssg24
I63970
sg25
I73500
sssI15
(dp152
g4
(dp153
g6
I15
sg7
(dp154
g9
g10
(g14
S'\x00\x00\x00\x80,s\xfa?'
p155
tp156
Rp157
sg20
g10
(g14
S'\x00\x00\x00 \xf8|\xc2?'
p158
tp159
Rp160
ssg24
I63970
sg25
I73500
sssI16
(dp161
g4
(dp162
g6
I16
sg7
(dp163
g9
g10
(g14
S'\x00\x00\x00@\xad\xd1\xfa?'
p164
tp165
Rp166
sg20
g10
(g14
S'\x00\x00\x00\xe0{\xbb\xc0?'
p167
tp168
Rp169
ssg24
I63970
sg25
I73500
sssI17
(dp170
g4
(dp171
g6
I17
sg7
(dp172
g9
g10
(g14
S'\x00\x00\x00\xc0\x1e!\xfb?'
p173
tp174
Rp175
sg20
g10
(g14
S'\x00\x00\x00\x00\xf7\xf2\xc1?'
p176
tp177
Rp178
ssg24
I63970
sg25
I73500
sssI18
(dp179
g4
(dp180
g6
I18
sg7
(dp181
g9
g10
(g14
S'\x00\x00\x00\x80\x80\x80\xfb?'
p182
tp183
Rp184
sg20
g10
(g14
S'\x00\x00\x00\x00\x83_\xb4?'
p185
tp186
Rp187
ssg24
I63970
sg25
I73500
sssI19
(dp188
g4
(dp189
g6
I19
sg7
(dp190
g9
g10
(g14
S'\x00\x00\x00 \xf2\x95\xd7?'
p191
tp192
Rp193
sg20
g10
(g14
S'\x00\x00\x00\x00\x10\xdf\xbf?'
p194
tp195
Rp196
ssg24
I68593
sg25
I73500
sssI20
(dp197
g4
(dp198
g6
I20
sg7
(dp199
g9
g10
(g14
S'\x00\x00\x00 \xf6\xce\xd7?'
p200
tp201
Rp202
sg20
g10
(g14
S'\x00\x00\x00\xa0Nv\xc7?'
p203
tp204
Rp205
ssg24
I68593
sg25
I73500
sssI21
(dp206
g4
(dp207
g6
I21
sg7
(dp208
g9
g10
(g14
S'\x00\x00\x00 \rx\xe2?'
p209
tp210
Rp211
sg20
g10
(g14
S'\x00\x00\x00 \x87,\xb0?'
p212
tp213
Rp214
ssg24
I68593
sg25
I73500
sssI22
(dp215
g4
(dp216
g6
I22
sg7
(dp217
g9
g10
(g14
S'\x00\x00\x00\xa0m\xaf\xd9?'
p218
tp219
Rp220
sg20
g10
(g14
S'\x00\x00\x00 \x12!\xba?'
p221
tp222
Rp223
ssg24
I68593
sg25
I73500
sssI23
(dp224
g4
(dp225
g6
I23
sg7
(dp226
g9
g10
(g14
S'\x00\x00\x00\xe0dA\xd8?'
p227
tp228
Rp229
sg20
g10
(g14
S'\x00\x00\x00\xa0\x15\xe5\xab?'
p230
tp231
Rp232
ssg24
I68593
sg25
I73500
sssI24
(dp233
g4
(dp234
g6
I24
sg7
(dp235
g9
g10
(g14
S'\x00\x00\x00\x80\xf6\x9d\xe4?'
p236
tp237
Rp238
sg20
g10
(g14
S'\x00\x00\x00\xe0\x04\xd7\xc1?'
p239
tp240
Rp241
ssg24
I68593
sg25
I73500
sssI25
(dp242
g4
(dp243
g6
I25
sg7
(dp244
g9
g10
(g14
S'\x00\x00\x00`46\xec?'
p245
tp246
Rp247
sg20
g10
(g14
S'\x00\x00\x00`\xd4\x1c\xbf?'
p248
tp249
Rp250
ssg24
I68777
sg25
I73500
sssI26
(dp251
g4
(dp252
g6
I26
sg7
(dp253
g9
g10
(g14
S'\x00\x00\x00`\x11\x86\xeb?'
p254
tp255
Rp256
sg20
g10
(g14
S'\x00\x00\x00\xc0\xdb\x9c\xa7?'
p257
tp258
Rp259
ssg24
I68777
sg25
I73500
sssI27
(dp260
g4
(dp261
g6
I27
sg7
(dp262
g9
g10
(g14
S'\x00\x00\x00\xe0\xe8E\xf2?'
p263
tp264
Rp265
sg20
g10
(g14
S'\x00\x00\x00\xe0&\xf4\xa6?'
p266
tp267
Rp268
ssg24
I68777
sg25
I73500
sssI28
(dp269
g4
(dp270
g6
I28
sg7
(dp271
g9
g10
(g14
S'\x00\x00\x00\x80\x98\xad\xf3?'
p272
tp273
Rp274
sg20
g10
(g14
S'\x00\x00\x00\xc0\x82\x1d\xc1?'
p275
tp276
Rp277
ssg24
I68777
sg25
I73500
sssI29
(dp278
g4
(dp279
g6
I29
sg7
(dp280
g9
g10
(g14
S'\x00\x00\x00\xc0\xd0\x0c\xf8?'
p281
tp282
Rp283
sg20
g10
(g14
S'\x00\x00\x00 \xb6\xf1\xb2?'
p284
tp285
Rp286
ssg24
I68777
sg25
I73500
sssI30
(dp287
g4
(dp288
g6
I30
sg7
(dp289
g9
g10
(g14
S'\x00\x00\x00@\x0b\x17\xf0?'
p290
tp291
Rp292
sg20
g10
(g14
S'\x00\x00\x00\x80t!\xe4?'
p293
tp294
Rp295
ssg24
I69252
sg25
I73500
sssI31
(dp296
g4
(dp297
g6
I31
sg7
(dp298
g9
g10
(g14
S'\x00\x00\x00 \xe5\xbe\xf1?'
p299
tp300
Rp301
sg20
g10
(g14
S'\x00\x00\x00\xe0l\x81\xf5?'
p302
tp303
Rp304
ssg24
I69252
sg25
I73500
sssI32
(dp305
g4
(dp306
g6
I32
sg7
(dp307
g9
g10
(g14
S'\x00\x00\x00@\xf8g\xf7?'
p308
tp309
Rp310
sg20
g10
(g14
S'\x00\x00\x00`\x02\x00\xf2?'
p311
tp312
Rp313
ssg24
I69252
sg25
I73500
sssI33
(dp314
g4
(dp315
g6
I33
sg7
(dp316
g9
g10
(g14
S'\x00\x00\x00\xe0\x00\x18\xf6?'
p317
tp318
Rp319
sg20
g10
(g14
S'\x00\x00\x00\x80\xc7\x97\xd5?'
p320
tp321
Rp322
ssg24
I69252
sg25
I73500
sssI34
(dp323
g4
(dp324
g6
I34
sg7
(dp325
g9
g10
(g14
S'\x00\x00\x00\x00\x98\xc8\xf1?'
p326
tp327
Rp328
sg20
g10
(g14
S'\x00\x00\x00\x00\xce\xb8\xeb?'
p329
tp330
Rp331
ssg24
I69252
sg25
I73500
sssI35
(dp332
g4
(dp333
g6
I35
sg7
(dp334
g9
g10
(g14
S'\x00\x00\x00@\xec\x1f\xf2?'
p335
tp336
Rp337
sg20
g10
(g14
S'\x00\x00\x00@H^\xe8?'
p338
tp339
Rp340
ssg24
I69252
sg25
I73500
sssI36
(dp341
g4
(dp342
g6
I36
sg7
(dp343
g9
g10
(g14
S'\x00\x00\x00\xc0\x98;\xf2?'
p344
tp345
Rp346
sg20
g10
(g14
S'\x00\x00\x00\xe0.\x9e\xe9?'
p347
tp348
Rp349
ssg24
I69252
sg25
I73500
sssI37
(dp350
g4
(dp351
g6
I37
sg7
(dp352
g9
g10
(g14
S'\x00\x00\x00`\xac\xb5\xf3?'
p353
tp354
Rp355
sg20
g10
(g14
S'\x00\x00\x00\xe0xM\xe3?'
p356
tp357
Rp358
ssg24
I69252
sg25
I73500
sssI38
(dp359
g4
(dp360
g6
I38
sg7
(dp361
g9
g10
(g14
S'\x00\x00\x00\x00\xe7\xfb\xf3?'
p362
tp363
Rp364
sg20
g10
(g14
S'\x00\x00\x00\x80\xb4\r\xe6?'
p365
tp366
Rp367
ssg24
I69252
sg25
I73500
sssI39
(dp368
g4
(dp369
g6
I39
sg7
(dp370
g9
g10
(g14
S'\x00\x00\x00\x80\x8cI\xf4?'
p371
tp372
Rp373
sg20
g10
(g14
S'\x00\x00\x00\x80\xab\xa5\xf1?'
p374
tp375
Rp376
ssg24
I69252
sg25
I73500
sssI40
(dp377
g4
(dp378
g6
I40
sg7
(dp379
g9
g10
(g14
S'\x00\x00\x00\xa0\xb6\xaa\xeb?'
p380
tp381
Rp382
sg20
g10
(g14
S"\x00\x00\x00\x80\xa0'\xa4?"
p383
tp384
Rp385
ssg24
I70295
sg25
I73500
sssI41
(dp386
g4
(dp387
g6
I41
sg7
(dp388
g9
g10
(g14
S'\x00\x00\x00@\x0f^\xec?'
p389
tp390
Rp391
sg20
g10
(g14
S'\x00\x00\x00\x00]\x10\xc8?'
p392
tp393
Rp394
ssg24
I70295
sg25
I73500
sssI42
(dp395
g4
(dp396
g6
I42
sg7
(dp397
g9
g10
(g14
S'\x00\x00\x00\x00\xac\x15\xed?'
p398
tp399
Rp400
sg20
g10
(g14
S'\x00\x00\x00\xa0\x82\xa9\xc0?'
p401
tp402
Rp403
ssg24
I70295
sg25
I73500
sssI43
(dp404
g4
(dp405
g6
I43
sg7
(dp406
g9
g10
(g14
S'\x00\x00\x00`B\xaa\xed?'
p407
tp408
Rp409
sg20
g10
(g14
S'\x00\x00\x00\x80I\x16\xa2?'
p410
tp411
Rp412
ssg24
I70295
sg25
I73500
sssI44
(dp413
g4
(dp414
g6
I44
sg7
(dp415
g9
g10
(g14
S'\x00\x00\x00@\xd8T\xee?'
p416
tp417
Rp418
sg20
g10
(g14
S'\x00\x00\x00\x00\xe3\xf1\xb1?'
p419
tp420
Rp421
ssg24
I70295
sg25
I73500
sssI45
(dp422
g4
(dp423
g6
I45
sg7
(dp424
g9
g10
(g14
S'\x00\x00\x00`\xa5\xfc\xee?'
p425
tp426
Rp427
sg20
g10
(g14
S'\x00\x00\x00\x00\x06I\xb9?'
p428
tp429
Rp430
ssg24
I70295
sg25
I73500
sssI46
(dp431
g4
(dp432
g6
I46
sg7
(dp433
g9
g10
(g14
S'\x00\x00\x00\xc0D\xe5\xec?'
p434
tp435
Rp436
sg20
g10
(g14
S'\x00\x00\x00\xa0\x06\xd7\xb7?'
p437
tp438
Rp439
ssg24
I70295
sg25
I73500
sssI47
(dp440
g4
(dp441
g6
I47
sg7
(dp442
g9
g10
(g14
S'\x00\x00\x00\xe0\xc8u\xee?'
p443
tp444
Rp445
sg20
g10
(g14
S'\x00\x00\x00@\xbe\x1e\xc2?'
p446
tp447
Rp448
ssg24
I70295
sg25
I73500
sssI48
(dp449
g4
(dp450
g6
I48
sg7
(dp451
g9
g10
(g14
S'\x00\x00\x00\xa0\x1d\r\xe2?'
p452
tp453
Rp454
sg20
g10
(g14
S'\x00\x00\x00\xe0E\xe2\xbf?'
p455
tp456
Rp457
ssg24
I70295
sg25
I73500
sssI49
(dp458
g4
(dp459
g6
I49
sg7
(dp460
g9
g10
(g14
S'\x00\x00\x00`\xea\xad\xe2?'
p461
tp462
Rp463
sg20
g10
(g14
S'\x00\x00\x00\xa0v\x83\xc0?'
p464
tp465
Rp466
ssg24
I70295
sg25
I73500
sssI50
(dp467
g4
(dp468
g6
I50
sg7
(dp469
g9
g10
(g14
S'\x00\x00\x00@.\xf9\xe5?'
p470
tp471
Rp472
sg20
g10
(g14
S'\x00\x00\x00\xc0\xfbz\xb5?'
p473
tp474
Rp475
ssg24
I70295
sg25
I73500
sssI51
(dp476
g4
(dp477
g6
I51
sg7
(dp478
g9
g10
(g14
S'\x00\x00\x00\x00\xd2\x9b\xe6?'
p479
tp480
Rp481
sg20
g10
(g14
S'\x00\x00\x00@\xd1b\xc8?'
p482
tp483
Rp484
ssg24
I70295
sg25
I73500
sssI52
(dp485
g4
(dp486
g6
I52
sg7
(dp487
g9
g10
(g14
S'\x00\x00\x00@\xde\x97\xd5?'
p488
tp489
Rp490
sg20
g10
(g14
S'\x00\x00\x00\xc06\xc4\xb5?'
p491
tp492
Rp493
ssg24
I70505
sg25
I73500
sssI53
(dp494
g4
(dp495
g6
I53
sg7
(dp496
g9
g10
(g14
S'\x00\x00\x00\xa0\xcf\xa9\xea?'
p497
tp498
Rp499
sg20
g10
(g14
S'\x00\x00\x00\xa0\xbcJ\xb0?'
p500
tp501
Rp502
ssg24
I70505
sg25
I73500
sssI54
(dp503
g4
(dp504
g6
I54
sg7
(dp505
g9
g10
(g14
S'\x00\x00\x00\xe05w\xe2?'
p506
tp507
Rp508
sg20
g10
(g14
S'\x00\x00\x00\xe05\x94\xc1?'
p509
tp510
Rp511
ssg24
I70505
sg25
I73500
sssI55
(dp512
g4
(dp513
g6
I55
sg7
(dp514
g9
g10
(g14
S'\x00\x00\x00 \x19=\xdc?'
p515
tp516
Rp517
sg20
g10
(g14
S'\x00\x00\x00`\xe6\xa6\xb3?'
p518
tp519
Rp520
ssg24
I70505
sg25
I73500
sssI56
(dp521
g4
(dp522
g6
I56
sg7
(dp523
g9
g10
(g14
S'\x00\x00\x00\x00)m\xf2?'
p524
tp525
Rp526
sg20
g10
(g14
S'\x00\x00\x00\x00\xd3E\xb4?'
p527
tp528
Rp529
ssg24
I70544
sg25
I73500
sssI57
(dp530
g4
(dp531
g6
I57
sg7
(dp532
g9
g10
(g14
S'\x00\x00\x00` \xa0\xf2?'
p533
tp534
Rp535
sg20
g10
(g14
S'\x00\x00\x00\x00\x9a\xa2\xc5?'
p536
tp537
Rp538
ssg24
I70544
sg25
I73500
sssI58
(dp539
g4
(dp540
g6
I58
sg7
(dp541
g9
g10
(g14
S'\x00\x00\x00\x80\xf9\xeb\xf2?'
p542
tp543
Rp544
sg20
g10
(g14
S'\x00\x00\x00\xe0\x15\xa5\xb9?'
p545
tp546
Rp547
ssg24
I70544
sg25
I73500
sssI59
(dp548
g4
(dp549
g6
I59
sg7
(dp550
g9
g10
(g14
S'\x00\x00\x00`0H\xf3?'
p551
tp552
Rp553
sg20
g10
(g14
S'\x00\x00\x00\xc07\x0c\xc0?'
p554
tp555
Rp556
ssg24
I70544
sg25
I73500
sssI60
(dp557
g4
(dp558
g6
I60
sg7
(dp559
g9
g10
(g14
S'\x00\x00\x00@\x9e\x93\xf3?'
p560
tp561
Rp562
sg20
g10
(g14
S'\x00\x00\x00\xa0{o\xbd?'
p563
tp564
Rp565
ssg24
I70544
sg25
I73500
sssI61
(dp566
g4
(dp567
g6
I61
sg7
(dp568
g9
g10
(g14
S'\x00\x00\x00\x80\x93\xec\xf4?'
p569
tp570
Rp571
sg20
g10
(g14
S'\x00\x00\x00\xa0\x9c\xf4\xc2?'
p572
tp573
Rp574
ssg24
I70544
sg25
I73500
sssI62
(dp575
g4
(dp576
g6
I62
sg7
(dp577
g9
g10
(g14
S'\x00\x00\x00@\xd2\x11\xf8?'
p578
tp579
Rp580
sg20
g10
(g14
S'\x00\x00\x00\x80\xcf.\xba?'
p581
tp582
Rp583
ssg24
I70544
sg25
I73500
sssI63
(dp584
g4
(dp585
g6
I63
sg7
(dp586
g9
g10
(g14
S'\x00\x00\x00 "W\xf7?'
p587
tp588
Rp589
sg20
g10
(g14
S'\x00\x00\x00\x80\xe2V\xbc?'
p590
tp591
Rp592
ssg24
I70544
sg25
I73500
sssI64
(dp593
g4
(dp594
g6
I64
sg7
(dp595
g9
g10
(g14
S'\x00\x00\x00\xe0\xb6q\xf2?'
p596
tp597
Rp598
sg20
g10
(g14
S'\x00\x00\x00\x80\xd9\xbb\xb4?'
p599
tp600
Rp601
ssg24
I70544
sg25
I73500
sssI65
(dp602
g4
(dp603
g6
I65
sg7
(dp604
g9
g10
(g14
S'\x00\x00\x00\xc0\x06S\xf5?'
p605
tp606
Rp607
sg20
g10
(g14
S'\x00\x00\x00 \xf9\xc0\xb0?'
p608
tp609
Rp610
ssg24
I73289
sg25
I73500
sssI66
(dp611
g4
(dp612
g6
I66
sg7
(dp613
g9
g10
(g14
S'\x00\x00\x00\xc0\x8c\xc4\xe1?'
p614
tp615
Rp616
sg20
g10
(g14
S'\x00\x00\x00\xc0\x98+\xc5?'
p617
tp618
Rp619
ssg24
I73289
sg25
I73500
sssI67
(dp620
g4
(dp621
g6
I67
sg7
(dp622
g9
g10
(g14
S'\x00\x00\x00\x00\xa5\x1d\xe1?'
p623
tp624
Rp625
sg20
g10
(g14
S'\x00\x00\x00\x00\xf5\xe3\xc5?'
p626
tp627
Rp628
ssg24
I73289
sg25
I73500
sssI68
(dp629
g4
(dp630
g6
I68
sg7
(dp631
g9
g10
(g14
S'\x00\x00\x00\x80\x1d7\xe5?'
p632
tp633
Rp634
sg20
g10
(g14
S'\x00\x00\x00\x00\x9a\x88\xbd?'
p635
tp636
Rp637
ssg24
I73289
sg25
I73500
sssI69
(dp638
g4
(dp639
g6
I69
sg7
(dp640
g9
g10
(g14
S'\x00\x00\x00\x80\x11\xe5\xe5?'
p641
tp642
Rp643
sg20
g10
(g14
S'\x00\x00\x00`\x96D\xb3?'
p644
tp645
Rp646
ssg24
I73289
sg25
I73500
sssI70
(dp647
g4
(dp648
g6
I70
sg7
(dp649
g9
g10
(g14
S'\x00\x00\x00\xc0\x8cn\xe6?'
p650
tp651
Rp652
sg20
g10
(g14
S'\x00\x00\x00\xc0\xa7T\xbc?'
p653
tp654
Rp655
ssg24
I73289
sg25
I73500
sssI71
(dp656
g4
(dp657
g6
I71
sg7
(dp658
g9
g10
(g14
S'\x00\x00\x00\x00D\xaf\xc7?'
p659
tp660
Rp661
sg20
g10
(g14
S'\x00\x00\x00@\xb8s\xe1?'
p662
tp663
Rp664
ssg24
I74118
sg25
I73500
sssI72
(dp665
g4
(dp666
g6
I72
sg7
(dp667
g9
g10
(g14
S'\x00\x00\x00\xc0H9\xc5?'
p668
tp669
Rp670
sg20
g10
(g14
S'\x00\x00\x00@\xc5e\xf2?'
p671
tp672
Rp673
ssg24
I74118
sg25
I73500
sssI73
(dp674
g4
(dp675
g6
I73
sg7
(dp676
g9
g10
(g14
S'\x00\x00\x00\x00\nV\xca?'
p677
tp678
Rp679
sg20
g10
(g14
S'\x00\x00\x00@\xa7`\xe8?'
p680
tp681
Rp682
ssg24
I74118
sg25
I73500
sssI74
(dp683
g4
(dp684
g6
I74
sg7
(dp685
g9
g10
(g14
S'\x00\x00\x00`\xf0"\xcf?'
p686
tp687
Rp688
sg20
g10
(g14
S'\x00\x00\x00\xe0z\x8b\xe7?'
p689
tp690
Rp691
ssg24
I74118
sg25
I73500
sssI75
(dp692
g4
(dp693
g6
I75
sg7
(dp694
g9
g10
(g14
S'\x00\x00\x00\xc0]\xae\xcc?'
p695
tp696
Rp697
sg20
g10
(g14
S'\x00\x00\x00\x00\xc9\x8e\xd3?'
p698
tp699
Rp700
ssg24
I74118
sg25
I73500
sssI76
(dp701
g4
(dp702
g6
I76
sg7
(dp703
g9
g10
(g14
S'\x00\x00\x00@6\x0b\xe1?'
p704
tp705
Rp706
sg20
g10
(g14
S'\x00\x00\x00\xc0]\x8d\xf4?'
p707
tp708
Rp709
ssg24
I74118
sg25
I73500
sssI77
(dp710
g4
(dp711
g6
I77
sg7
(dp712
g9
g10
(g14
S'\x00\x00\x00@6\xae\xe1?'
p713
tp714
Rp715
sg20
g10
(g14
S'\x00\x00\x00\x80Q\xad\xf1?'
p716
tp717
Rp718
ssg24
I74118
sg25
I73500
sssI78
(dp719
g4
(dp720
g6
I78
sg7
(dp721
g9
g10
(g14
S'\x00\x00\x00\xa0\x8a"\xe2?'
p722
tp723
Rp724
sg20
g10
(g14
S'\x00\x00\x00\xc0|\xd2\xe9?'
p725
tp726
Rp727
ssg24
I74118
sg25
I73500
sssI79
(dp728
g4
(dp729
g6
I79
sg7
(dp730
g9
g10
(g14
S'\x00\x00\x00`\xc8+\xe3?'
p731
tp732
Rp733
sg20
g10
(g14
S'\x00\x00\x00\xe0A&\xe9?'
p734
tp735
Rp736
ssg24
I74118
sg25
I73500
sssI80
(dp737
g4
(dp738
g6
I80
sg7
(dp739
g9
g10
(g14
S'\x00\x00\x00\xe0\xee\xe2\xe3?'
p740
tp741
Rp742
sg20
g10
(g14
S'\x00\x00\x00`.P\xe3?'
p743
tp744
Rp745
ssg24
I74118
sg25
I73500
sssI81
(dp746
g4
(dp747
g6
I81
sg7
(dp748
g9
g10
(g14
S'\x00\x00\x00\x00\x04#\xe2?'
p749
tp750
Rp751
sg20
g10
(g14
S'\x00\x00\x00 \x17<\xf0?'
p752
tp753
Rp754
ssg24
I74118
sg25
I73500
sssI82
(dp755
g4
(dp756
g6
I82
sg7
(dp757
g9
g10
(g14
S'\x00\x00\x00@By\xe8?'
p758
tp759
Rp760
sg20
g10
(g14
S'\x00\x00\x00\xa0\xd7\xcf\xe6?'
p761
tp762
Rp763
ssg24
I74118
sg25
I73500
sssI83
(dp764
g4
(dp765
g6
I83
sg7
(dp766
g9
g10
(g14
S'\x00\x00\x00\xe0q\xdb\xe6?'
p767
tp768
Rp769
sg20
g10
(g14
S'\x00\x00\x00\x00\xf8~\xe5?'
p770
tp771
Rp772
ssg24
I74118
sg25
I73500
sssI84
(dp773
g4
(dp774
g6
I84
sg7
(dp775
g9
g10
(g14
S'\x00\x00\x00@\xdb\xf2\xf5?'
p776
tp777
Rp778
sg20
g10
(g14
S'\x00\x00\x00\x00^N\xf0?'
p779
tp780
Rp781
ssg24
I74118
sg25
I73500
sssI85
(dp782
g4
(dp783
g6
I85
sg7
(dp784
g9
g10
(g14
S'\x00\x00\x00\xa0\xaa\xe7\xf5?'
p785
tp786
Rp787
sg20
g10
(g14
S'\x00\x00\x00 \xae;\xea?'
p788
tp789
Rp790
ssg24
I74118
sg25
I73500
sssI86
(dp791
g4
(dp792
g6
I86
sg7
(dp793
g9
g10
(g14
S'\x00\x00\x00`5d\x02@'
p794
tp795
Rp796
sg20
g10
(g14
S'\x00\x00\x00\x80\x00N\xc5?'
p797
tp798
Rp799
ssg24
I74319
sg25
I73500
sssI87
(dp800
g4
(dp801
g6
I87
sg7
(dp802
g9
g10
(g14
S'\x00\x00\x00\xa0\x87\xc2\x02@'
p803
tp804
Rp805
sg20
g10
(g14
S'\x00\x00\x00 \xe89\xb4?'
p806
tp807
Rp808
ssg24
I74319
sg25
I73500
sssI88
(dp809
g4
(dp810
g6
I88
sg7
(dp811
g9
g10
(g14
S'\x00\x00\x00`0\x90\x02@'
p812
tp813
Rp814
sg20
g10
(g14
S'\x00\x00\x00`P\x88\xb3?'
p815
tp816
Rp817
ssg24
I74319
sg25
I73500
sssI89
(dp818
g4
(dp819
g6
I89
sg7
(dp820
g9
g10
(g14
S'\x00\x00\x00\xc0\xe3\xe5\x02@'
p821
tp822
Rp823
sg20
g10
(g14
S'\x00\x00\x00\xe0\xb1\x05\xb5?'
p824
tp825
Rp826
ssg24
I74319
sg25
I73500
sssI90
(dp827
g4
(dp828
g6
I90
sg7
(dp829
g9
g10
(g14
S'\x00\x00\x00`\x90}\x02@'
p830
tp831
Rp832
sg20
g10
(g14
S'\x00\x00\x00\x00\x1dT\xb0?'
p833
tp834
Rp835
ssg24
I74319
sg25
I73500
sssI91
(dp836
g4
(dp837
g6
I91
sg7
(dp838
g9
g10
(g14
S'\x00\x00\x00@\xd9\xb2\x03@'
p839
tp840
Rp841
sg20
g10
(g14
S'\x00\x00\x00@\xb2]\xbe?'
p842
tp843
Rp844
ssg24
I74319
sg25
I73500
sssI92
(dp845
g4
(dp846
g6
I92
sg7
(dp847
g9
g10
(g14
S'\x00\x00\x00\x00Y-\x0f@'
p848
tp849
Rp850
sg20
g10
(g14
S'\x00\x00\x00\xe0\x179\xb9?'
p851
tp852
Rp853
ssg24
I74319
sg25
I73500
sssI93
(dp854
g4
(dp855
g6
I93
sg7
(dp856
g9
g10
(g14
S'\x00\x00\x00\xc0H\xd0\xfc?'
p857
tp858
Rp859
sg20
g10
(g14
S'\x00\x00\x00\xa0b\xc3\xc7?'
p860
tp861
Rp862
ssg24
I74327
sg25
I73500
sssI94
(dp863
g4
(dp864
g6
I94
sg7
(dp865
g9
g10
(g14
S'\x00\x00\x00`(]\x01@'
p866
tp867
Rp868
sg20
g10
(g14
S'\x00\x00\x00\xc0\xc2~\xbc?'
p869
tp870
Rp871
ssg24
I74327
sg25
I73500
sssI95
(dp872
g4
(dp873
g6
I95
sg7
(dp874
g9
g10
(g14
S'\x00\x00\x00@\\\xa6\x01@'
p875
tp876
Rp877
sg20
g10
(g14
S'\x00\x00\x00\xa069\xc2?'
p878
tp879
Rp880
ssg24
I74327
sg25
I73500
sssI96
(dp881
g4
(dp882
g6
I96
sg7
(dp883
g9
g10
(g14
S'\x00\x00\x00\xa05\xf7\x01@'
p884
tp885
Rp886
sg20
g10
(g14
S'\x00\x00\x00\xc0\xe8v\xc1?'
p887
tp888
Rp889
ssg24
I74327
sg25
I73500
sssI97
(dp890
g4
(dp891
g6
I97
sg7
(dp892
g9
g10
(g14
S'\x00\x00\x00@7\x1c\x02@'
p893
tp894
Rp895
sg20
g10
(g14
S'\x00\x00\x00\x00\x90\x15\xb8?'
p896
tp897
Rp898
ssg24
I74327
sg25
I73500
sssI98
(dp899
g4
(dp900
g6
I98
sg7
(dp901
g9
g10
(g14
S'\x00\x00\x00`y@\x02@'
p902
tp903
Rp904
sg20
g10
(g14
S'\x00\x00\x00@.\xeb\xb9?'
p905
tp906
Rp907
ssg24
I74327
sg25
I73500
sssI99
(dp908
g4
(dp909
g6
I99
sg7
(dp910
g9
g10
(g14
S'\x00\x00\x00 6\x82\t@'
p911
tp912
Rp913
sg20
g10
(g14
S'\x00\x00\x00@\xb5\x16\xc1?'
p914
tp915
Rp916
ssg24
I74486
sg25
I73500
sssI100
(dp917
g4
(dp918
g6
I100
sg7
(dp919
g9
g10
(g14
S'\x00\x00\x00`AN\xf6?'
p920
tp921
Rp922
sg20
g10
(g14
S'\x00\x00\x00\xe0\xdf#\xbc?'
p923
tp924
Rp925
ssg24
I74486
sg25
I73500
sssI101
(dp926
g4
(dp927
g6
I101
sg7
(dp928
g9
g10
(g14
S'\x00\x00\x00@\x84\x96\xf6?'
p929
tp930
Rp931
sg20
g10
(g14
S'\x00\x00\x00`\x10Q\xb2?'
p932
tp933
Rp934
ssg24
I74486
sg25
I73500
sssI102
(dp935
g4
(dp936
g6
I102
sg7
(dp937
g9
g10
(g14
S'\x00\x00\x00\xc0C\xdd\xf6?'
p938
tp939
Rp940
sg20
g10
(g14
S'\x00\x00\x00`\x14\xb8\xc5?'
p941
tp942
Rp943
ssg24
I74486
sg25
I73500
sssI103
(dp944
g4
(dp945
g6
I103
sg7
(dp946
g9
g10
(g14
S'\x00\x00\x00\xe0\xc9\x08\xfa?'
p947
tp948
Rp949
sg20
g10
(g14
S'\x00\x00\x00`\xf5\x19\xbf?'
p950
tp951
Rp952
ssg24
I74486
sg25
I73500
sssI104
(dp953
g4
(dp954
g6
I104
sg7
(dp955
g9
g10
(g14
S'\x00\x00\x00\xc0EU\xfa?'
p956
tp957
Rp958
sg20
g10
(g14
S'\x00\x00\x00\xa0\xe3Z\xaa?'
p959
tp960
Rp961
ssg24
I74486
sg25
I73500
sssI105
(dp962
g4
(dp963
g6
I105
sg7
(dp964
g9
g10
(g14
S'\x00\x00\x00`\x92\x99\xfa?'
p965
tp966
Rp967
sg20
g10
(g14
S'\x00\x00\x00@\xa7`\xbd?'
p968
tp969
Rp970
ssg24
I74486
sg25
I73500
sssI106
(dp971
g4
(dp972
g6
I106
sg7
(dp973
g9
g10
(g14
S'\x00\x00\x00\xe0\x91\xf8\xfa?'
p974
tp975
Rp976
sg20
g10
(g14
S'\x00\x00\x00\xc0B \xc7?'
p977
tp978
Rp979
ssg24
I74486
sg25
I73500
sssI107
(dp980
g4
(dp981
g6
I107
sg7
(dp982
g9
g10
(g14
S'\x00\x00\x00\x00\x9cU\xfb?'
p983
tp984
Rp985
sg20
g10
(g14
S'\x00\x00\x00 l\xce\xc0?'
p986
tp987
Rp988
ssg24
I74486
sg25
I73500
sssI108
(dp989
g4
(dp990
g6
I108
sg7
(dp991
g9
g10
(g14
S'\x00\x00\x00 \xa39\xf7?'
p992
tp993
Rp994
sg20
g10
(g14
S'\x00\x00\x00\x00\xfc.\xb5?'
p995
tp996
Rp997
ssg24
I74486
sg25
I73500
sssI109
(dp998
g4
(dp999
g6
I109
sg7
(dp1000
g9
g10
(g14
S'\x00\x00\x00\x80\xdd\x96\xf7?'
p1001
tp1002
Rp1003
sg20
g10
(g14
S'\x00\x00\x00`\x12\xd1\xc5?'
p1004
tp1005
Rp1006
ssg24
I74486
sg25
I73500
sssI110
(dp1007
g4
(dp1008
g6
I110
sg7
(dp1009
g9
g10
(g14
S'\x00\x00\x00\xc0\x0e\x19\xf6?'
p1010
tp1011
Rp1012
sg20
g10
(g14
S'\x00\x00\x00@"\'\xf0?'
p1013
tp1014
Rp1015
ssg24
I76469
sg25
I73500
sssI111
(dp1016
g4
(dp1017
g6
I111
sg7
(dp1018
g9
g10
(g14
S'\x00\x00\x00\xc02O\xf6?'
p1019
tp1020
Rp1021
sg20
g10
(g14
S'\x00\x00\x00\x00\x85\xe1\xe5?'
p1022
tp1023
Rp1024
ssg24
I76469
sg25
I73500
sssI112
(dp1025
g4
(dp1026
g6
I112
sg7
(dp1027
g9
g10
(g14
S'\x00\x00\x00\x80\xf2\x99\x03@'
p1028
tp1029
Rp1030
sg20
g10
(g14
S'\x00\x00\x00 \xdf\xf8\xe6?'
p1031
tp1032
Rp1033
ssg24
I76469
sg25
I73500
sssI113
(dp1034
g4
(dp1035
g6
I113
sg7
(dp1036
g9
g10
(g14
S'\x00\x00\x00@j@\xf6?'
p1037
tp1038
Rp1039
sg20
g10
(g14
S'\x00\x00\x00\x80\x0f \xe4?'
p1040
tp1041
Rp1042
ssg24
I76469
sg25
I73500
sssI114
(dp1043
g4
(dp1044
g6
I114
sg7
(dp1045
g9
g10
(g14
S'\x00\x00\x00@?V\x02@'
p1046
tp1047
Rp1048
sg20
g10
(g14
S'\x00\x00\x00\xc0\xac\xe2\xe1?'
p1049
tp1050
Rp1051
ssg24
I76469
sg25
I73500
sssI115
(dp1052
g4
(dp1053
g6
I115
sg7
(dp1054
g9
g10
(g14
S'\x00\x00\x00\xc0\xf4N\xf6?'
p1055
tp1056
Rp1057
sg20
g10
(g14
S'\x00\x00\x00\xa0\xad\x9c\xf0?'
p1058
tp1059
Rp1060
ssg24
I76469
sg25
I73500
sssI116
(dp1061
g4
(dp1062
g6
I116
sg7
(dp1063
g9
g10
(g14
S'\x00\x00\x00 \xfe\xaf\xfd?'
p1064
tp1065
Rp1066
sg20
g10
(g14
S'\x00\x00\x00\x80n5\xf0?'
p1067
tp1068
Rp1069
ssg24
I76469
sg25
I73500
sssI117
(dp1070
g4
(dp1071
g6
I117
sg7
(dp1072
g9
g10
(g14
S'\x00\x00\x00\xa0\xd8\x7f\xe3?'
p1073
tp1074
Rp1075
sg20
g10
(g14
S'\x00\x00\x00\xc0\xe8&\xe1?'
p1076
tp1077
Rp1078
ssg24
I76561
sg25
I73500
sssI118
(dp1079
g4
(dp1080
g6
I118
sg7
(dp1081
g9
g10
(g14
S'\x00\x00\x00\xa0\xe9f\xfc?'
p1082
tp1083
Rp1084
sg20
g10
(g14
S'\x00\x00\x00\x00}\t\xe1?'
p1085
tp1086
Rp1087
ssg24
I76561
sg25
I73500
sssI119
(dp1088
g4
(dp1089
g6
I119
sg7
(dp1090
g9
g10
(g14
S'\x00\x00\x00\xe0\x05\xb2\xfc?'
p1091
tp1092
Rp1093
sg20
g10
(g14
S'\x00\x00\x00\x00|\x1e\xf0?'
p1094
tp1095
Rp1096
ssg24
I76561
sg25
I73500
sssI120
(dp1097
g4
(dp1098
g6
I120
sg7
(dp1099
g9
g10
(g14
S'\x00\x00\x00\x80\x1b\x02\xfd?'
p1100
tp1101
Rp1102
sg20
g10
(g14
S'\x00\x00\x00 #\x0c\xd3?'
p1103
tp1104
Rp1105
ssg24
I76561
sg25
I73500
sssI121
(dp1106
g4
(dp1107
g6
I121
sg7
(dp1108
g9
g10
(g14
S'\x00\x00\x00\xe0\x00D\xe4?'
p1109
tp1110
Rp1111
sg20
g10
(g14
S'\x00\x00\x00`tb\xf2?'
p1112
tp1113
Rp1114
ssg24
I76561
sg25
I73500
sssI122
(dp1115
g4
(dp1116
g6
I122
sg7
(dp1117
g9
g10
(g14
S'\x00\x00\x00\x80\xbd\xfc\xe4?'
p1118
tp1119
Rp1120
sg20
g10
(g14
S'\x00\x00\x00\xa0$\xd5\xe1?'
p1121
tp1122
Rp1123
ssg24
I76561
sg25
I73500
sssI123
(dp1124
g4
(dp1125
g6
I123
sg7
(dp1126
g9
g10
(g14
S'\x00\x00\x00 a\xae\xe5?'
p1127
tp1128
Rp1129
sg20
g10
(g14
S'\x00\x00\x00\x00\xe7\xfa\xf2?'
p1130
tp1131
Rp1132
ssg24
I76561
sg25
I73500
sssI124
(dp1133
g4
(dp1134
g6
I124
sg7
(dp1135
g9
g10
(g14
S'\x00\x00\x00\xe0\x1cc\xe4?'
p1136
tp1137
Rp1138
sg20
g10
(g14
S'\x00\x00\x00\xe0\x8f\xda\xf1?'
p1139
tp1140
Rp1141
ssg24
I76561
sg25
I73500
sssI125
(dp1142
g4
(dp1143
g6
I125
sg7
(dp1144
g9
g10
(g14
S'\x00\x00\x00\x00t\x0c\xe5?'
p1145
tp1146
Rp1147
sg20
g10
(g14
S'\x00\x00\x00\x00E\xc7\xd5?'
p1148
tp1149
Rp1150
ssg24
I76561
sg25
I73500
sssI126
(dp1151
g4
(dp1152
g6
I126
sg7
(dp1153
g9
g10
(g14
S'\x00\x00\x00\xc0\xcf\x9e\xe5?'
p1154
tp1155
Rp1156
sg20
g10
(g14
S'\x00\x00\x00\x80\xe5\xa2\xf5?'
p1157
tp1158
Rp1159
ssg24
I76561
sg25
I73500
sssI127
(dp1160
g4
(dp1161
g6
I127
sg7
(dp1162
g9
g10
(g14
S'\x00\x00\x00\x80&\x1b\xf6?'
p1163
tp1164
Rp1165
sg20
g10
(g14
S'\x00\x00\x00@\xc0\xa0\xed?'
p1166
tp1167
Rp1168
ssg24
I76561
sg25
I73500
sssI128
(dp1169
g4
(dp1170
g6
I128
sg7
(dp1171
g9
g10
(g14
S'\x00\x00\x00\x00\xdcU\xf6?'
p1172
tp1173
Rp1174
sg20
g10
(g14
S'\x00\x00\x00\xa0\xd4N\xda?'
p1175
tp1176
Rp1177
ssg24
I76561
sg25
I73500
sssI129
(dp1178
g4
(dp1179
g6
I129
sg7
(dp1180
g9
g10
(g14
S'\x00\x00\x00`;b\xf6?'
p1181
tp1182
Rp1183
sg20
g10
(g14
S'\x00\x00\x00`\xef\x06\xd5?'
p1184
tp1185
Rp1186
ssg24
I76561
sg25
I73500
sssI130
(dp1187
g4
(dp1188
g6
I130
sg7
(dp1189
g9
g10
(g14
S'\x00\x00\x00\xe0j\xd0\xee?'
p1190
tp1191
Rp1192
sg20
g10
(g14
S'\x00\x00\x00 \x1f\xce\xf0?'
p1193
tp1194
Rp1195
ssg24
I76561
sg25
I73500
sssI131
(dp1196
g4
(dp1197
g6
I131
sg7
(dp1198
g9
g10
(g14
S'\x00\x00\x00`\x8be\xe6?'
p1199
tp1200
Rp1201
sg20
g10
(g14
S'\x00\x00\x00\x00O\x19\xee?'
p1202
tp1203
Rp1204
ssg24
I76561
sg25
I73500
sssI132
(dp1205
g4
(dp1206
g6
I132
sg7
(dp1207
g9
g10
(g14
S'\x00\x00\x00 nm\x07@'
p1208
tp1209
Rp1210
sg20
g10
(g14
S'\x00\x00\x00\xc0\xcb\xf5\xc6?'
p1211
tp1212
Rp1213
ssg24
I76822
sg25
I73500
sssI133
(dp1214
g4
(dp1215
g6
I133
sg7
(dp1216
g9
g10
(g14
S'\x00\x00\x00\xa0i\x98\x07@'
p1217
tp1218
Rp1219
sg20
g10
(g14
S'\x00\x00\x00 \x15Y\xbf?'
p1220
tp1221
Rp1222
ssg24
I76822
sg25
I73500
sssI134
(dp1223
g4
(dp1224
g6
I134
sg7
(dp1225
g9
g10
(g14
S'\x00\x00\x00\x00\x8f\xc0\x07@'
p1226
tp1227
Rp1228
sg20
g10
(g14
S'\x00\x00\x00\xe0md\xb6?'
p1229
tp1230
Rp1231
ssg24
I76822
sg25
I73500
sssI135
(dp1232
g4
(dp1233
g6
I135
sg7
(dp1234
g9
g10
(g14
S'\x00\x00\x00\xe0\x0f\xa6\x04@'
p1235
tp1236
Rp1237
sg20
g10
(g14
S'\x00\x00\x00`p.\xc6?'
p1238
tp1239
Rp1240
ssg24
I76822
sg25
I73500
sssI136
(dp1241
g4
(dp1242
g6
I136
sg7
(dp1243
g9
g10
(g14
S'\x00\x00\x00\xe0q\xcd\x04@'
p1244
tp1245
Rp1246
sg20
g10
(g14
S'\x00\x00\x00\x004^\xac?'
p1247
tp1248
Rp1249
ssg24
I76822
sg25
I73500
sssI137
(dp1250
g4
(dp1251
g6
I137
sg7
(dp1252
g9
g10
(g14
S'\x00\x00\x00\xe0I\xf3\x04@'
p1253
tp1254
Rp1255
sg20
g10
(g14
S'\x00\x00\x00\xa0\x1c\xc2\xc2?'
p1256
tp1257
Rp1258
ssg24
I76822
sg25
I73500
sssI138
(dp1259
g4
(dp1260
g6
I138
sg7
(dp1261
g9
g10
(g14
S'\x00\x00\x00\x80\x82\x17\x05@'
p1262
tp1263
Rp1264
sg20
g10
(g14
S'\x00\x00\x00`\xd0p\xc3?'
p1265
tp1266
Rp1267
ssg24
I76822
sg25
I73500
sssI139
(dp1268
g4
(dp1269
g6
I139
sg7
(dp1270
g9
g10
(g14
S'\x00\x00\x00 \x11E\x05@'
p1271
tp1272
Rp1273
sg20
g10
(g14
S'\x00\x00\x00\xa0\x81&\xb7?'
p1274
tp1275
Rp1276
ssg24
I76822
sg25
I73500
sssI140
(dp1277
g4
(dp1278
g6
I140
sg7
(dp1279
g9
g10
(g14
S'\x00\x00\x00\xa07l\x05@'
p1280
tp1281
Rp1282
sg20
g10
(g14
S'\x00\x00\x00\x00\x0cq\xc0?'
p1283
tp1284
Rp1285
ssg24
I76822
sg25
I73500
sssI141
(dp1286
g4
(dp1287
g6
I141
sg7
(dp1288
g9
g10
(g14
S'\x00\x00\x00\xa0\x96\x97\x05@'
p1289
tp1290
Rp1291
sg20
g10
(g14
S'\x00\x00\x00\xa0v\xee\xc6?'
p1292
tp1293
Rp1294
ssg24
I76822
sg25
I73500
sssI142
(dp1295
g4
(dp1296
g6
I142
sg7
(dp1297
g9
g10
(g14
S'\x00\x00\x00\x00\x1a\xf3\xff?'
p1298
tp1299
Rp1300
sg20
g10
(g14
S'\x00\x00\x00\x00\n\x06\xb3?'
p1301
tp1302
Rp1303
ssg24
I132272
sg25
I73500
sssI143
(dp1304
g4
(dp1305
g6
I143
sg7
(dp1306
g9
g10
(g14
S'\x00\x00\x00 M\x0c\x00@'
p1307
tp1308
Rp1309
sg20
g10
(g14
S'\x00\x00\x00 \x943\xa3?'
p1310
tp1311
Rp1312
ssg24
I132272
sg25
I73500
sssI144
(dp1313
g4
(dp1314
g6
I144
sg7
(dp1315
g9
g10
(g14
S'\x00\x00\x00\xe0\xb1f\x00@'
p1316
tp1317
Rp1318
sg20
g10
(g14
S'\x00\x00\x00\xa0\xda\xf1\xc2?'
p1319
tp1320
Rp1321
ssg24
I132272
sg25
I73500
sssI145
(dp1322
g4
(dp1323
g6
I145
sg7
(dp1324
g9
g10
(g14
S'\x00\x00\x00\x00\t9\x00@'
p1325
tp1326
Rp1327
sg20
g10
(g14
S'\x00\x00\x00\xa0L\xae\xad?'
p1328
tp1329
Rp1330
ssg24
I132272
sg25
I73500
sssI146
(dp1331
g4
(dp1332
g6
I146
sg7
(dp1333
g9
g10
(g14
S'\x00\x00\x00`]\x11\x00@'
p1334
tp1335
Rp1336
sg20
g10
(g14
S'\x00\x00\x00@\x1eX\xb9?'
p1337
tp1338
Rp1339
ssg24
I132272
sg25
I73500
sssI147
(dp1340
g4
(dp1341
g6
I147
sg7
(dp1342
g9
g10
(g14
S'\x00\x00\x00\xa0.\xed\xec?'
p1343
tp1344
Rp1345
sg20
g10
(g14
S'\x00\x00\x00@\xfb.\xbc?'
p1346
tp1347
Rp1348
ssg24
I161951
sg25
I73500
sssI148
(dp1349
g4
(dp1350
g6
I148
sg7
(dp1351
g9
g10
(g14
S'\x00\x00\x00@\xc6`\xf4?'
p1352
tp1353
Rp1354
sg20
g10
(g14
S'\x00\x00\x00@;\xe3\xc6?'
p1355
tp1356
Rp1357
ssg24
I161951
sg25
I73500
sssI149
(dp1358
g4
(dp1359
g6
I149
sg7
(dp1360
g9
g10
(g14
S'\x00\x00\x00\xe0\x89\xe3\xef?'
p1361
tp1362
Rp1363
sg20
g10
(g14
S'\x00\x00\x00\xc0AN\xc5?'
p1364
tp1365
Rp1366
ssg24
I161951
sg25
I73500
sssI150
(dp1367
g4
(dp1368
g6
I150
sg7
(dp1369
g9
g10
(g14
S'\x00\x00\x00 \xc2M\xf0?'
p1370
tp1371
Rp1372
sg20
g10
(g14
S'\x00\x00\x00\xe0\x89\xc8\xc3?'
p1373
tp1374
Rp1375
ssg24
I161951
sg25
I73500
sssI151
(dp1376
g4
(dp1377
g6
I151
sg7
(dp1378
g9
g10
(g14
S'\x00\x00\x00\xc0v\xa0\xf0?'
p1379
tp1380
Rp1381
sg20
g10
(g14
S'\x00\x00\x00 n^\xbb?'
p1382
tp1383
Rp1384
ssg24
I161951
sg25
I73500
sssI152
(dp1385
g4
(dp1386
g6
I152
sg7
(dp1387
g9
g10
(g14
S'\x00\x00\x00\xc0\x84\xf0\xf0?'
p1388
tp1389
Rp1390
sg20
g10
(g14
S'\x00\x00\x00 \xb0,\xc5?'
p1391
tp1392
Rp1393
ssg24
I161951
sg25
I73500
sssI153
(dp1394
g4
(dp1395
g6
I153
sg7
(dp1396
g9
g10
(g14
S'\x00\x00\x00\xc0\xe9\xa8\xe4?'
p1397
tp1398
Rp1399
sg20
g10
(g14
S'\x00\x00\x00@1z\xb8?'
p1400
tp1401
Rp1402
ssg24
I161951
sg25
I73500
sssI154
(dp1403
g4
(dp1404
g6
I154
sg7
(dp1405
g9
g10
(g14
S'\x00\x00\x00@B,\xd6?'
p1406
tp1407
Rp1408
sg20
g10
(g14
S"\x00\x00\x00`'f\xb7?"
p1409
tp1410
Rp1411
ssg24
I163946
sg25
I73500
sssI155
(dp1412
g4
(dp1413
g6
I155
sg7
(dp1414
g9
g10
(g14
S'\x00\x00\x00\x80\x171\xdd?'
p1415
tp1416
Rp1417
sg20
g10
(g14
S'\x00\x00\x00\xe0Z\xa8\xc1?'
p1418
tp1419
Rp1420
ssg24
I163946
sg25
I73500
sssI156
(dp1421
g4
(dp1422
g6
I156
sg7
(dp1423
g9
g10
(g14
S'\x00\x00\x00 Z\xed\xd9?'
p1424
tp1425
Rp1426
sg20
g10
(g14
S'\x00\x00\x00\x80lo\xb5?'
p1427
tp1428
Rp1429
ssg24
I163946
sg25
I73500
sssI157
(dp1430
g4
(dp1431
g6
I157
sg7
(dp1432
g9
g10
(g14
S'\x00\x00\x00\x00/Q\xde?'
p1433
tp1434
Rp1435
sg20
g10
(g14
S'\x00\x00\x00\xc0\xe5\x06\xc0?'
p1436
tp1437
Rp1438
ssg24
I163946
sg25
I73500
sssI158
(dp1439
g4
(dp1440
g6
I158
sg7
(dp1441
g9
g10
(g14
S'\x00\x00\x00\xe0\x11\xa0\xdd?'
p1442
tp1443
Rp1444
sg20
g10
(g14
S'\x00\x00\x00\x80\xc4\xe3\xc4?'
p1445
tp1446
Rp1447
ssg24
I163946
sg25
I73500
sssI159
(dp1448
g4
(dp1449
g6
I159
sg7
(dp1450
g9
g10
(g14
S'\x00\x00\x00\xc0(\x01\xf0?'
p1451
tp1452
Rp1453
sg20
g10
(g14
S"\x00\x00\x00\xa0'\xd4\xc1?"
p1454
tp1455
Rp1456
ssg24
I164882
sg25
I73500
sssI160
(dp1457
g4
(dp1458
g6
I160
sg7
(dp1459
g9
g10
(g14
S'\x00\x00\x00\x80\xfbV\xf0?'
p1460
tp1461
Rp1462
sg20
g10
(g14
S'\x00\x00\x00\xe0\x01\x9c\xb5?'
p1463
tp1464
Rp1465
ssg24
I164882
sg25
I73500
sssI161
(dp1466
g4
(dp1467
g6
I161
sg7
(dp1468
g9
g10
(g14
S'\x00\x00\x00\x00\xbc\xbb\xf0?'
p1469
tp1470
Rp1471
sg20
g10
(g14
S'\x00\x00\x00\x80:\xfc\xbd?'
p1472
tp1473
Rp1474
ssg24
I164882
sg25
I73500
sssI162
(dp1475
g4
(dp1476
g6
I162
sg7
(dp1477
g9
g10
(g14
S'\x00\x00\x00`\xa7\x0e\xf1?'
p1478
tp1479
Rp1480
sg20
g10
(g14
S'\x00\x00\x00\x80\xb1\xea\xa3?'
p1481
tp1482
Rp1483
ssg24
I164882
sg25
I73500
sssI163
(dp1484
g4
(dp1485
g6
I163
sg7
(dp1486
g9
g10
(g14
S'\x00\x00\x00\xc0\\Y\xf1?'
p1487
tp1488
Rp1489
sg20
g10
(g14
S'\x00\x00\x00`\xb5\x07\xc1?'
p1490
tp1491
Rp1492
ssg24
I164882
sg25
I73500
sssI164
(dp1493
g4
(dp1494
g6
I164
sg7
(dp1495
g9
g10
(g14
S'\x00\x00\x00@\x0e\x9f\xf1?'
p1496
tp1497
Rp1498
sg20
g10
(g14
S'\x00\x00\x00\xa0\x18\xe2\xbe?'
p1499
tp1500
Rp1501
ssg24
I164882
sg25
I73500
sssI165
(dp1502
g4
(dp1503
g6
I165
sg7
(dp1504
g9
g10
(g14
S'\x00\x00\x00\x00]\xfb\xf1?'
p1505
tp1506
Rp1507
sg20
g10
(g14
S'\x00\x00\x00@\xc0b\xc5?'
p1508
tp1509
Rp1510
ssg24
I164882
sg25
I73500
sssI166
(dp1511
g4
(dp1512
g6
I166
sg7
(dp1513
g9
g10
(g14
S'\x00\x00\x00\x80\xf5?\xf2?'
p1514
tp1515
Rp1516
sg20
g10
(g14
S'\x00\x00\x00\xa0i`\xb9?'
p1517
tp1518
Rp1519
ssg24
I164882
sg25
I73500
sssI167
(dp1520
g4
(dp1521
g6
I167
sg7
(dp1522
g9
g10
(g14
S'\x00\x00\x00\x00\xb3\x8e\xf0?'
p1523
tp1524
Rp1525
sg20
g10
(g14
S'\x00\x00\x00@\xe0a\xb7?'
p1526
tp1527
Rp1528
ssg24
I164882
sg25
I73500
sssI168
(dp1529
g4
(dp1530
g6
I168
sg7
(dp1531
g9
g10
(g14
S'\x00\x00\x00@6\xa2\xf0?'
p1532
tp1533
Rp1534
sg20
g10
(g14
S'\x00\x00\x00\xa0P6\xb7?'
p1535
tp1536
Rp1537
ssg24
I164882
sg25
I73500
sssI169
(dp1538
g4
(dp1539
g6
I169
sg7
(dp1540
g9
g10
(g14
S'\x00\x00\x00\x80\x95\xe2\xd8?'
p1541
tp1542
Rp1543
sg20
g10
(g14
S'\x00\x00\x00\xe0\x93"\xbb?'
p1544
tp1545
Rp1546
ssg24
I167798
sg25
I73500
sssI170
(dp1547
g4
(dp1548
g6
I170
sg7
(dp1549
g9
g10
(g14
S'\x00\x00\x00\xa0\xaa\x1c\xe8?'
p1550
tp1551
Rp1552
sg20
g10
(g14
S'\x00\x00\x00@\xa8\x14\xc1?'
p1553
tp1554
Rp1555
ssg24
I167798
sg25
I73500
sssI171
(dp1556
g4
(dp1557
g6
I171
sg7
(dp1558
g9
g10
(g14
S'\x00\x00\x00 5&\xe8?'
p1559
tp1560
Rp1561
sg20
g10
(g14
S'\x00\x00\x00\x00CG\xb8?'
p1562
tp1563
Rp1564
ssg24
I167798
sg25
I73500
sssI172
(dp1565
g4
(dp1566
g6
I172
sg7
(dp1567
g9
g10
(g14
S'\x00\x00\x00\x00z\xcf\xfa?'
p1568
tp1569
Rp1570
sg20
g10
(g14
S'\x00\x00\x00\x00:\xb5\xbe?'
p1571
tp1572
Rp1573
ssg24
I167798
sg25
I73500
sssI173
(dp1574
g4
(dp1575
g6
I173
sg7
(dp1576
g9
g10
(g14
S'\x00\x00\x00@+#\xfb?'
p1577
tp1578
Rp1579
sg20
g10
(g14
S'\x00\x00\x00\x80A\x92\xbc?'
p1580
tp1581
Rp1582
ssg24
I167798
sg25
I73500
sssI174
(dp1583
g4
(dp1584
g6
I174
sg7
(dp1585
g9
g10
(g14
S'\x00\x00\x00`\xc2\xce\xfc?'
p1586
tp1587
Rp1588
sg20
g10
(g14
S'\x00\x00\x00\xc0c;\xbd?'
p1589
tp1590
Rp1591
ssg24
I167798
sg25
I73500
sssI175
(dp1592
g4
(dp1593
g6
I175
sg7
(dp1594
g9
g10
(g14
S'\x00\x00\x00\xa0Of\xfb?'
p1595
tp1596
Rp1597
sg20
g10
(g14
S'\x00\x00\x00\xe0\xb0Z\xbc?'
p1598
tp1599
Rp1600
ssg24
I167798
sg25
I73500
sssI176
(dp1601
g4
(dp1602
g6
I176
sg7
(dp1603
g9
g10
(g14
S'\x00\x00\x00`N\xbb\xfb?'
p1604
tp1605
Rp1606
sg20
g10
(g14
S'\x00\x00\x00\x00P\xd1\xb1?'
p1607
tp1608
Rp1609
ssg24
I167798
sg25
I73500
sssI177
(dp1610
g4
(dp1611
g6
I177
sg7
(dp1612
g9
g10
(g14
S'\x00\x00\x00\xa0\xe2\xc9\xf6?'
p1613
tp1614
Rp1615
sg20
g10
(g14
S'\x00\x00\x00`\xfb\xf6\xb9?'
p1616
tp1617
Rp1618
ssg24
I167798
sg25
I73500
sssI178
(dp1619
g4
(dp1620
g6
I178
sg7
(dp1621
g9
g10
(g14
S'\x00\x00\x00\xa0\n\xab\xe4?'
p1622
tp1623
Rp1624
sg20
g10
(g14
S'\x00\x00\x00\x00\x84\x07\xc8?'
p1625
tp1626
Rp1627
ssg24
I167798
sg25
I73500
sssI179
(dp1628
g4
(dp1629
g6
I179
sg7
(dp1630
g9
g10
(g14
S'\x00\x00\x00\xa0\x1fY\xfe?'
p1631
tp1632
Rp1633
sg20
g10
(g14
S'\x00\x00\x00 \xa1H\xc6?'
p1634
tp1635
Rp1636
ssg24
I169652
sg25
I73500
sssI180
(dp1637
g4
(dp1638
g6
I180
sg7
(dp1639
g9
g10
(g14
S'\x00\x00\x00@\x8a\xa9\xfe?'
p1640
tp1641
Rp1642
sg20
g10
(g14
S'\x00\x00\x00\xa0\x9cq\xb0?'
p1643
tp1644
Rp1645
ssg24
I169652
sg25
I73500
sssI181
(dp1646
g4
(dp1647
g6
I181
sg7
(dp1648
g9
g10
(g14
S'\x00\x00\x00\xe0\x90\xf4\xfe?'
p1649
tp1650
Rp1651
sg20
g10
(g14
S'\x00\x00\x00\x00\xd5\xb2\xc4?'
p1652
tp1653
Rp1654
ssg24
I169652
sg25
I73500
sssI182
(dp1655
g4
(dp1656
g6
I182
sg7
(dp1657
g9
g10
(g14
S'\x00\x00\x00\xa0\xfd;\xff?'
p1658
tp1659
Rp1660
sg20
g10
(g14
S'\x00\x00\x00\xe0\xf2\x06\xc0?'
p1661
tp1662
Rp1663
ssg24
I169652
sg25
I73500
sssI183
(dp1664
g4
(dp1665
g6
I183
sg7
(dp1666
g9
g10
(g14
S'\x00\x00\x00\xa0\x8a\xe1\xff?'
p1667
tp1668
Rp1669
sg20
g10
(g14
S'\x00\x00\x00@\x18\xbc\xc1?'
p1670
tp1671
Rp1672
ssg24
I169652
sg25
I73500
sssI184
(dp1673
g4
(dp1674
g6
I184
sg7
(dp1675
g9
g10
(g14
S'\x00\x00\x00 9\x19\x00@'
p1676
tp1677
Rp1678
sg20
g10
(g14
S'\x00\x00\x00`D\x8d\xb4?'
p1679
tp1680
Rp1681
ssg24
I169652
sg25
I73500
sssI185
(dp1682
g4
(dp1683
g6
I185
sg7
(dp1684
g9
g10
(g14
S'\x00\x00\x00`\x80]\n@'
p1685
tp1686
Rp1687
sg20
g10
(g14
S'\x00\x00\x00`\xcc@\xad?'
p1688
tp1689
Rp1690
ssg24
I183432
sg25
I73500
sssI186
(dp1691
g4
(dp1692
g6
I186
sg7
(dp1693
g9
g10
(g14
S'\x00\x00\x00`\x89\x80\n@'
p1694
tp1695
Rp1696
sg20
g10
(g14
S'\x00\x00\x00 \xdb\x86\xc7?'
p1697
tp1698
Rp1699
ssg24
I183432
sg25
I73500
sssI187
(dp1700
g4
(dp1701
g6
I187
sg7
(dp1702
g9
g10
(g14
S'\x00\x00\x00 \n\xb2\t@'
p1703
tp1704
Rp1705
sg20
g10
(g14
S'\x00\x00\x00\x80\xd0P\xb6?'
p1706
tp1707
Rp1708
ssg24
I183432
sg25
I73500
sssI188
(dp1709
g4
(dp1710
g6
I188
sg7
(dp1711
g9
g10
(g14
S'\x00\x00\x00 \t\t\t@'
p1712
tp1713
Rp1714
sg20
g10
(g14
S'\x00\x00\x00\x00G\xa9\xc3?'
p1715
tp1716
Rp1717
ssg24
I183432
sg25
I73500
sssI189
(dp1718
g4
(dp1719
g6
I189
sg7
(dp1720
g9
g10
(g14
S'\x00\x00\x00\x80\xda0\t@'
p1721
tp1722
Rp1723
sg20
g10
(g14
S'\x00\x00\x00`\x06=\xc6?'
p1724
tp1725
Rp1726
ssg24
I183432
sg25
I73500
sssI190
(dp1727
g4
(dp1728
g6
I190
sg7
(dp1729
g9
g10
(g14
S'\x00\x00\x00\xe0\xccW\t@'
p1730
tp1731
Rp1732
sg20
g10
(g14
S'\x00\x00\x00\xe0\xe7n\xb7?'
p1733
tp1734
Rp1735
ssg24
I183432
sg25
I73500
sssI191
(dp1736
g4
(dp1737
g6
I191
sg7
(dp1738
g9
g10
(g14
S'\x00\x00\x00 \xde\xf0\x1a@'
p1739
tp1740
Rp1741
sg20
g10
(g14
S'\x00\x00\x00 ~b\xb4?'
p1742
tp1743
Rp1744
ssg24
I186563
sg25
I73500
sssI192
(dp1745
g4
(dp1746
g6
I192
sg7
(dp1747
g9
g10
(g14
S'\x00\x00\x00\xa0\xad\n\x1b@'
p1748
tp1749
Rp1750
sg20
g10
(g14
S'\x00\x00\x00\xa0RW\xb6?'
p1751
tp1752
Rp1753
ssg24
I186563
sg25
I73500
sssI193
(dp1754
g4
(dp1755
g6
I193
sg7
(dp1756
g9
g10
(g14
S'\x00\x00\x00\xc0y\x1d\x1b@'
p1757
tp1758
Rp1759
sg20
g10
(g14
S'\x00\x00\x00`\xa1o\xb4?'
p1760
tp1761
Rp1762
ssg24
I186563
sg25
I73500
sssI194
(dp1763
g4
(dp1764
g6
I194
sg7
(dp1765
g9
g10
(g14
S'\x00\x00\x00 W3\x1b@'
p1766
tp1767
Rp1768
sg20
g10
(g14
S'\x00\x00\x00\x00\xcai\xc0?'
p1769
tp1770
Rp1771
ssg24
I186563
sg25
I73500
sssI195
(dp1772
g4
(dp1773
g6
I195
sg7
(dp1774
g9
g10
(g14
S'\x00\x00\x00\x80%\xd5\x19@'
p1775
tp1776
Rp1777
sg20
g10
(g14
S'\x00\x00\x00\xe0\xbb\x90\xc6?'
p1778
tp1779
Rp1780
ssg24
I186563
sg25
I73500
sssI196
(dp1781
g4
(dp1782
g6
I196
sg7
(dp1783
g9
g10
(g14
S'\x00\x00\x00\xa06\x13\x1a@'
p1784
tp1785
Rp1786
sg20
g10
(g14
S'\x00\x00\x00 \x88\xd2\xb1?'
p1787
tp1788
Rp1789
ssg24
I186563
sg25
I73500
sssI197
(dp1790
g4
(dp1791
g6
I197
sg7
(dp1792
g9
g10
(g14
S'\x00\x00\x00\xe0\x8ey\x18@'
p1793
tp1794
Rp1795
sg20
g10
(g14
S'\x00\x00\x00\x80+\xdb\xdf?'
p1796
tp1797
Rp1798
ssg24
I187570
sg25
I73500
sssI198
(dp1799
g4
(dp1800
g6
I198
sg7
(dp1801
g9
g10
(g14
S'\x00\x00\x00 \xad\x8b\x18@'
p1802
tp1803
Rp1804
sg20
g10
(g14
S'\x00\x00\x00\x00<U\xf3?'
p1805
tp1806
Rp1807
ssg24
I187570
sg25
I73500
sssI199
(dp1808
g4
(dp1809
g6
I199
sg7
(dp1810
g9
g10
(g14
S'\x00\x00\x00\x80\xe4\x9c\x18@'
p1811
tp1812
Rp1813
sg20
g10
(g14
S'\x00\x00\x00\x00\x836\xec?'
p1814
tp1815
Rp1816
ssg24
I187570
sg25
I73500
sssI200
(dp1817
g4
(dp1818
g6
I200
sg7
(dp1819
g9
g10
(g14
S'\x00\x00\x00\xa0\xbb\xaf\x18@'
p1820
tp1821
Rp1822
sg20
g10
(g14
S'\x00\x00\x00\x80\xa5.\xf0?'
p1823
tp1824
Rp1825
ssg24
I187570
sg25
I73500
sssI201
(dp1826
g4
(dp1827
g6
I201
sg7
(dp1828
g9
g10
(g14
S'\x00\x00\x00@G\x0c\x17@'
p1829
tp1830
Rp1831
sg20
g10
(g14
S'\x00\x00\x00\xc0hu\xeb?'
p1832
tp1833
Rp1834
ssg24
I187570
sg25
I73500
sssI202
(dp1835
g4
(dp1836
g6
I202
sg7
(dp1837
g9
g10
(g14
S'\x00\x00\x00\xe0\xf6\x1d\x17@'
p1838
tp1839
Rp1840
sg20
g10
(g14
S'\x00\x00\x00 \xbe\xbc\xf0?'
p1841
tp1842
Rp1843
ssg24
I187570
sg25
I73500
sssI203
(dp1844
g4
(dp1845
g6
I203
sg7
(dp1846
g9
g10
(g14
S'\x00\x00\x00@\xc3=\x18@'
p1847
tp1848
Rp1849
sg20
g10
(g14
S'\x00\x00\x00@>c\xe7?'
p1850
tp1851
Rp1852
ssg24
I187570
sg25
I73500
sssI204
(dp1853
g4
(dp1854
g6
I204
sg7
(dp1855
g9
g10
(g14
S'\x00\x00\x00\x00ak\x01@'
p1856
tp1857
Rp1858
sg20
g10
(g14
S'\x00\x00\x00@\xbf\x0e\xc2?'
p1859
tp1860
Rp1861
ssg24
I201568
sg25
I73500
sssI205
(dp1862
g4
(dp1863
g6
I205
sg7
(dp1864
g9
g10
(g14
S'\x00\x00\x00\xa0Y\x91\x01@'
p1865
tp1866
Rp1867
sg20
g10
(g14
S'\x00\x00\x00@i\xc0\xc4?'
p1868
tp1869
Rp1870
ssg24
I201568
sg25
I73500
sssI206
(dp1871
g4
(dp1872
g6
I206
sg7
(dp1873
g9
g10
(g14
S'\x00\x00\x00\x00\xdc\xe7\x01@'
p1874
tp1875
Rp1876
sg20
g10
(g14
S'\x00\x00\x00\xc0\x97@\xb4?'
p1877
tp1878
Rp1879
ssg24
I201568
sg25
I73500
sssI207
(dp1880
g4
(dp1881
g6
I207
sg7
(dp1882
g9
g10
(g14
S'\x00\x00\x00\x00I\x0e\x02@'
p1883
tp1884
Rp1885
sg20
g10
(g14
S'\x00\x00\x00`\xcc\xb8\xc1?'
p1886
tp1887
Rp1888
ssg24
I201568
sg25
I73500
sssI208
(dp1889
g4
(dp1890
g6
I208
sg7
(dp1891
g9
g10
(g14
S'\x00\x00\x00 \xe9:\x02@'
p1892
tp1893
Rp1894
sg20
g10
(g14
S'\x00\x00\x00@f\xaf\xc0?'
p1895
tp1896
Rp1897
ssg24
I201568
sg25
I73500
sssI209
(dp1898
g4
(dp1899
g6
I209
sg7
(dp1900
g9
g10
(g14
S'\x00\x00\x00\xa0\x96i\x02@'
p1901
tp1902
Rp1903
sg20
g10
(g14
S'\x00\x00\x00\xc0U\xfb\xbd?'
p1904
tp1905
Rp1906
ssg24
I201568
sg25
I73500
sssI210
(dp1907
g4
(dp1908
g6
I210
sg7
(dp1909
g9
g10
(g14
S'\x00\x00\x00\x80\xeah\xf2?'
p1910
tp1911
Rp1912
sg20
g10
(g14
S'\x00\x00\x00\x00\xb3D\xf0?'
p1913
tp1914
Rp1915
ssg24
I201611
sg25
I73500
sssI211
(dp1916
g4
(dp1917
g6
I211
sg7
(dp1918
g9
g10
(g14
S'\x00\x00\x00\x80M\xb6\xf2?'
p1919
tp1920
Rp1921
sg20
g10
(g14
S'\x00\x00\x00\xc0p\xd3\xf1?'
p1922
tp1923
Rp1924
ssg24
I201611
sg25
I73500
sssI212
(dp1925
g4
(dp1926
g6
I212
sg7
(dp1927
g9
g10
(g14
S'\x00\x00\x00@\xa6\xa5\xf3?'
p1928
tp1929
Rp1930
sg20
g10
(g14
S'\x00\x00\x00`\xc0\x80\xf0?'
p1931
tp1932
Rp1933
ssg24
I201611
sg25
I73500
sssI213
(dp1934
g4
(dp1935
g6
I213
sg7
(dp1936
g9
g10
(g14
S'\x00\x00\x00@-0\xfc?'
p1937
tp1938
Rp1939
sg20
g10
(g14
S'\x00\x00\x00\x00d\x16\xed?'
p1940
tp1941
Rp1942
ssg24
I201611
sg25
I73500
sssI214
(dp1943
g4
(dp1944
g6
I214
sg7
(dp1945
g9
g10
(g14
S'\x00\x00\x00`\x00\x83\xfc?'
p1946
tp1947
Rp1948
sg20
g10
(g14
S'\x00\x00\x00\xc0\xab6\xd6?'
p1949
tp1950
Rp1951
ssg24
I201611
sg25
I73500
sssI215
(dp1952
g4
(dp1953
g6
I215
sg7
(dp1954
g9
g10
(g14
S'\x00\x00\x00\xc0\x9c\xb1\xfe?'
p1955
tp1956
Rp1957
sg20
g10
(g14
S'\x00\x00\x00\x80\xe4T\xee?'
p1958
tp1959
Rp1960
ssg24
I201611
sg25
I73500
sssI216
(dp1961
g4
(dp1962
g6
I216
sg7
(dp1963
g9
g10
(g14
S'\x00\x00\x00\xa0\xba\x03\xff?'
p1964
tp1965
Rp1966
sg20
g10
(g14
S'\x00\x00\x00\xa0#\x92\xe6?'
p1967
tp1968
Rp1969
ssg24
I201611
sg25
I73500
sssI217
(dp1970
g4
(dp1971
g6
I217
sg7
(dp1972
g9
g10
(g14
S'\x00\x00\x00\xe0\xbaW\xff?'
p1973
tp1974
Rp1975
sg20
g10
(g14
S'\x00\x00\x00 \xe7*\xea?'
p1976
tp1977
Rp1978
ssg24
I201611
sg25
I73500
sssI218
(dp1979
g4
(dp1980
g6
I218
sg7
(dp1981
g9
g10
(g14
S'\x00\x00\x00\x00 \xaa\xff?'
p1982
tp1983
Rp1984
sg20
g10
(g14
S'\x00\x00\x00\xe04\xd3\xe0?'
p1985
tp1986
Rp1987
ssg24
I201611
sg25
I73500
sssI219
(dp1988
g4
(dp1989
g6
I219
sg7
(dp1990
g9
g10
(g14
S'\x00\x00\x00\xc0\x86\xbd\x02@'
p1991
tp1992
Rp1993
sg20
g10
(g14
S'\x00\x00\x00\xe02\xb2\xc3?'
p1994
tp1995
Rp1996
ssg24
I201742
sg25
I73500
sssI220
(dp1997
g4
(dp1998
g6
I220
sg7
(dp1999
g9
g10
(g14
S'\x00\x00\x00\x00\x81\xcf\x02@'
p2000
tp2001
Rp2002
sg20
g10
(g14
S'\x00\x00\x00 a\x7f\xb9?'
p2003
tp2004
Rp2005
ssg24
I201742
sg25
I73500
sssI221
(dp2006
g4
(dp2007
g6
I221
sg7
(dp2008
g9
g10
(g14
S'\x00\x00\x00\x80\x80\xc5\x02@'
p2009
tp2010
Rp2011
sg20
g10
(g14
S'\x00\x00\x00\x80\xf5\xca\xab?'
p2012
tp2013
Rp2014
ssg24
I201742
sg25
I73500
sssI222
(dp2015
g4
(dp2016
g6
I222
sg7
(dp2017
g9
g10
(g14
S'\x00\x00\x00\xe0m\x0e\x03@'
p2018
tp2019
Rp2020
sg20
g10
(g14
S'\x00\x00\x00\x80\x1a\xb8\xa9?'
p2021
tp2022
Rp2023
ssg24
I201742
sg25
I73500
sssI223
(dp2024
g4
(dp2025
g6
I223
sg7
(dp2026
g9
g10
(g14
S'\x00\x00\x00\x00\\b\xfc?'
p2027
tp2028
Rp2029
sg20
g10
(g14
S'\x00\x00\x00@>}\xc5?'
p2030
tp2031
Rp2032
ssg24
I201742
sg25
I73500
sssI224
(dp2033
g4
(dp2034
g6
I224
sg7
(dp2035
g9
g10
(g14
S'\x00\x00\x00\xc0\xa4\xbc\xfd?'
p2036
tp2037
Rp2038
sg20
g10
(g14
S'\x00\x00\x00\xa0\x9eF\xb0?'
p2039
tp2040
Rp2041
ssg24
I201742
sg25
I73500
sssI225
(dp2042
g4
(dp2043
g6
I225
sg7
(dp2044
g9
g10
(g14
S'\x00\x00\x00`#\x8b\xfc?'
p2045
tp2046
Rp2047
sg20
g10
(g14
S'\x00\x00\x00\xe0\xc3\xa0\xa6?'
p2048
tp2049
Rp2050
ssg24
I202260
sg25
I73500
sssI226
(dp2051
g4
(dp2052
g6
I226
sg7
(dp2053
g9
g10
(g14
S'\x00\x00\x00\xc0D\xdf\xfc?'
p2054
tp2055
Rp2056
sg20
g10
(g14
S'\x00\x00\x00\x80!\x91\xc4?'
p2057
tp2058
Rp2059
ssg24
I202260
sg25
I73500
sssI227
(dp2060
g4
(dp2061
g6
I227
sg7
(dp2062
g9
g10
(g14
S'\x00\x00\x00\xa0\xbd0\xfd?'
p2063
tp2064
Rp2065
sg20
g10
(g14
S'\x00\x00\x00\xc0\x9bO\xc0?'
p2066
tp2067
Rp2068
ssg24
I202260
sg25
I73500
sssI228
(dp2069
g4
(dp2070
g6
I228
sg7
(dp2071
g9
g10
(g14
S'\x00\x00\x00 )6\xfc?'
p2072
tp2073
Rp2074
sg20
g10
(g14
S'\x00\x00\x00\x80\x104\xc0?'
p2075
tp2076
Rp2077
ssg24
I202260
sg25
I73500
sssI229
(dp2078
g4
(dp2079
g6
I229
sg7
(dp2080
g9
g10
(g14
S'\x00\x00\x00\x00ng\xfb?'
p2081
tp2082
Rp2083
sg20
g10
(g14
S'\x00\x00\x00\x80\xd2\xae\xc1?'
p2084
tp2085
Rp2086
ssg24
I202260
sg25
I73500
sssI230
(dp2087
g4
(dp2088
g6
I230
sg7
(dp2089
g9
g10
(g14
S'\x00\x00\x00\xc0\xbc\x88\xfd?'
p2090
tp2091
Rp2092
sg20
g10
(g14
S'\x00\x00\x00\x80\x15\xde\xc2?'
p2093
tp2094
Rp2095
ssg24
I202260
sg25
I73500
sssI231
(dp2096
g4
(dp2097
g6
I231
sg7
(dp2098
g9
g10
(g14
S'\x00\x00\x00\x80\xe5\x11\xff?'
p2099
tp2100
Rp2101
sg20
g10
(g14
S'\x00\x00\x00 \\\xcc\xaa?'
p2102
tp2103
Rp2104
ssg24
I202260
sg25
I73500
sssI232
(dp2105
g4
(dp2106
g6
I232
sg7
(dp2107
g9
g10
(g14
S'\x00\x00\x00\xe0\xe1k\xff?'
p2108
tp2109
Rp2110
sg20
g10
(g14
S'\x00\x00\x00 \x11\xe3\xba?'
p2111
tp2112
Rp2113
ssg24
I202260
sg25
I73500
sssI233
(dp2114
g4
(dp2115
g6
I233
sg7
(dp2116
g9
g10
(g14
S'\x00\x00\x00 \xc8\x8b\xfd?'
p2117
tp2118
Rp2119
sg20
g10
(g14
S'\x00\x00\x00\xa0\xd0\x7f\xbc?'
p2120
tp2121
Rp2122
ssg24
I202260
sg25
I73500
sssI234
(dp2123
g4
(dp2124
g6
I234
sg7
(dp2125
g9
g10
(g14
S'\x00\x00\x00\xa0\xccC\x04@'
p2126
tp2127
Rp2128
sg20
g10
(g14
S'\x00\x00\x00\x80!\x99\xb1?'
p2129
tp2130
Rp2131
ssg24
I203823
sg25
I73500
sssI235
(dp2132
g4
(dp2133
g6
I235
sg7
(dp2134
g9
g10
(g14
S'\x00\x00\x00`Eh\x04@'
p2135
tp2136
Rp2137
sg20
g10
(g14
S'\x00\x00\x00 \xad\xec\xc3?'
p2138
tp2139
Rp2140
ssg24
I203823
sg25
I73500
sssI236
(dp2141
g4
(dp2142
g6
I236
sg7
(dp2143
g9
g10
(g14
S'\x00\x00\x00\xc0\x81Z\x02@'
p2144
tp2145
Rp2146
sg20
g10
(g14
S'\x00\x00\x00\x00\x16\x85\xae?'
p2147
tp2148
Rp2149
ssg24
I203823
sg25
I73500
sssI237
(dp2150
g4
(dp2151
g6
I237
sg7
(dp2152
g9
g10
(g14
S'\x00\x00\x00@\x03\x7f\x02@'
p2153
tp2154
Rp2155
sg20
g10
(g14
S'\x00\x00\x00\xa0\xe6y\xc1?'
p2156
tp2157
Rp2158
ssg24
I203823
sg25
I73500
sssI238
(dp2159
g4
(dp2160
g6
I238
sg7
(dp2161
g9
g10
(g14
S'\x00\x00\x00\x80\xc2\xfb\n@'
p2162
tp2163
Rp2164
sg20
g10
(g14
S'\x00\x00\x00\xa0|\xe2\xb8?'
p2165
tp2166
Rp2167
ssg24
I203823
sg25
I73500
sssI239
(dp2168
g4
(dp2169
g6
I239
sg7
(dp2170
g9
g10
(g14
S'\x00\x00\x00\x00\xdb3\x00@'
p2171
tp2172
Rp2173
sg20
g10
(g14
S'\x00\x00\x00 \x94\x8a\xc4?'
p2174
tp2175
Rp2176
ssg24
I206636
sg25
I73500
sssI240
(dp2177
g4
(dp2178
g6
I240
sg7
(dp2179
g9
g10
(g14
S'\x00\x00\x00\xc0"\x94\x02@'
p2180
tp2181
Rp2182
sg20
g10
(g14
S'\x00\x00\x00\x80\x9e}\xc2?'
p2183
tp2184
Rp2185
ssg24
I206636
sg25
I73500
sssI241
(dp2186
g4
(dp2187
g6
I241
sg7
(dp2188
g9
g10
(g14
S'\x00\x00\x00\x00\x9e(\x04@'
p2189
tp2190
Rp2191
sg20
g10
(g14
S'\x00\x00\x00\xa0\r\xf8\xaa?'
p2192
tp2193
Rp2194
ssg24
I206636
sg25
I73500
sssI242
(dp2195
g4
(dp2196
g6
I242
sg7
(dp2197
g9
g10
(g14
S'\x00\x00\x00@6Q\x04@'
p2198
tp2199
Rp2200
sg20
g10
(g14
S'\x00\x00\x00\xe0\xdf\x1e\xb4?'
p2201
tp2202
Rp2203
ssg24
I206636
sg25
I73500
sssI243
(dp2204
g4
(dp2205
g6
I243
sg7
(dp2206
g9
g10
(g14
S'\x00\x00\x00 \\~\x04@'
p2207
tp2208
Rp2209
sg20
g10
(g14
S'\x00\x00\x00@2,\xc7?'
p2210
tp2211
Rp2212
ssg24
I206636
sg25
I73500
sssI244
(dp2213
g4
(dp2214
g6
I244
sg7
(dp2215
g9
g10
(g14
S'\x00\x00\x00\x00\x87\x05\x10@'
p2216
tp2217
Rp2218
sg20
g10
(g14
S'\x00\x00\x00\xe0\xb6\xa6\xbc?'
p2219
tp2220
Rp2221
ssg24
I208607
sg25
I73500
sssI245
(dp2222
g4
(dp2223
g6
I245
sg7
(dp2224
g9
g10
(g14
S'\x00\x00\x00 \xd6\x1c\x10@'
p2225
tp2226
Rp2227
sg20
g10
(g14
S'\x00\x00\x00\x00#\x99\xb1?'
p2228
tp2229
Rp2230
ssg24
I208607
sg25
I73500
sssI246
(dp2231
g4
(dp2232
g6
I246
sg7
(dp2233
g9
g10
(g14
S'\x00\x00\x00\xe0;0\x10@'
p2234
tp2235
Rp2236
sg20
g10
(g14
S'\x00\x00\x00\xe0\xf0\x94\xc7?'
p2237
tp2238
Rp2239
ssg24
I208607
sg25
I73500
sssI247
(dp2240
g4
(dp2241
g6
I247
sg7
(dp2242
g9
g10
(g14
S'\x00\x00\x00\xc0N\x9a\x10@'
p2243
tp2244
Rp2245
sg20
g10
(g14
S'\x00\x00\x00\xa0\x8c\x04\xc2?'
p2246
tp2247
Rp2248
ssg24
I208607
sg25
I73500
sssI248
(dp2249
g4
(dp2250
g6
I248
sg7
(dp2251
g9
g10
(g14
S'\x00\x00\x00\xc0f\xa7\x10@'
p2252
tp2253
Rp2254
sg20
g10
(g14
S'\x00\x00\x00`"\xa8\xbf?'
p2255
tp2256
Rp2257
ssg24
I208607
sg25
I73500
sssI249
(dp2258
g4
(dp2259
g6
I249
sg7
(dp2260
g9
g10
(g14
S'\x00\x00\x00\xc0\xc8\xa7\x10@'
p2261
tp2262
Rp2263
sg20
g10
(g14
S'\x00\x00\x00\xe0\x8ev\xbc?'
p2264
tp2265
Rp2266
ssg24
I208607
sg25
I73500
sssa(dp2267
I0
(dp2268
g24
I59102
sS'post_segx'
p2269
g10
(g14
S'r \xc3\xff\x08\xe6\xec?'
p2270
tp2271
Rp2272
sg4
(dp2273
S'post_sec_id'
p2274
I350
sS'synapse_id'
p2275
I0
sS'randseed3'
p2276
NsS'randseed2'
p2277
I180436
sS'randseed1'
p2278
I100
sg2269
g2272
sS'synapse_parameters'
p2279
(dp2280
S'Dep'
p2281
F274.0
sS'Fac'
p2282
F1204.0
sS'Use'
p2283
F0.029123923685150495
sS'tau_d_AMPA'
p2284
F1.8557125329971313
ssS'syn_type'
p2285
I133
sS'synapseconfigure_cmds'
p2286
(lp2287
S'%s.mg = 1.0'
p2288
aS'%s.Use *= 0.174246913125'
p2289
aS'%s.NMDA_ratio = 0.8'
p2290
asg24
I59102
sS'mech_name'
p2291
S'ProbAMPANMDA_EMS'
p2292
sS'post_sec_name'
p2293
S'dend[14]'
p2294
sg25
I73500
ssg2293
S'dend[14]'
p2295
ssI1
(dp2296
g24
I59102
sg2269
g10
(g14
S'\xc4.H|i4\xcd?'
p2297
tp2298
Rp2299
sg4
(dp2300
g2274
I351
sg2275
I1
sg2276
Nsg2277
I180436
sg2278
I100100
sg2269
g2299
sg2279
(dp2301
g2281
F297.0
sg2282
F1296.0
sg2283
F0.03144285415231655
sg2284
F1.8756749629974365
ssg2285
I133
sg2286
(lp2302
g2288
ag2289
ag2290
asg24
I59102
sg2291
g2292
sg2293
S'dend[15]'
p2303
sg25
I73500
ssg2293
S'dend[15]'
p2304
ssI2
(dp2305
g24
I59102
sg2269
g10
(g14
S'\xca\xfb$\xda\x17\x90\xc9?'
p2306
tp2307
Rp2308
sg4
(dp2309
g2274
I351
sg2275
I2
sg2276
Nsg2277
I180436
sg2278
I200100
sg2269
g2308
sg2279
(dp2310
g2281
F127.0
sg2282
F627.0
sg2283
F0.014598924052690901
sg2284
F1.7306745052337646
ssg2285
I133
sg2286
(lp2311
g2288
ag2289
ag2290
asg24
I59102
sg2291
g2292
sg2293
S'dend[15]'
p2312
sg25
I73500
ssg2293
S'dend[15]'
p2313
ssI3
(dp2314
g24
I59102
sg2269
g10
(g14
S'w\xb9\xdf\xa8S"\xc5?'
p2315
tp2316
Rp2317
sg4
(dp2318
g2274
I351
sg2275
I3
sg2276
Nsg2277
I180436
sg2278
I300100
sg2269
g2317
sg2279
(dp2319
g2281
F136.0
sg2282
F661.0
sg2283
F0.015459551161167949
sg2284
F1.7380831241607666
ssg2285
I133
sg2286
(lp2320
g2288
ag2289
ag2290
asg24
I59102
sg2291
g2292
sg2293
S'dend[15]'
p2321
sg25
I73500
ssg2293
S'dend[15]'
p2322
ssI4
(dp2323
g24
I59102
sg2269
g10
(g14
S')7M6<\xe6\xc1?'
p2324
tp2325
Rp2326
sg4
(dp2327
g2274
I351
sg2275
I4
sg2276
Nsg2277
I180436
sg2278
I400100
sg2269
g2326
sg2279
(dp2328
g2281
F99.0
sg2282
F516.0
sg2283
F0.011812063507872988
sg2284
F1.706683874130249
ssg2285
I133
sg2286
(lp2329
g2288
ag2289
ag2290
asg24
I59102
sg2291
g2292
sg2293
S'dend[15]'
p2330
sg25
I73500
ssg2293
S'dend[15]'
p2331
ssI5
(dp2332
g24
I59102
sg2269
g10
(g14
S'\xef\xcfm$\x8a?\xba?'
p2333
tp2334
Rp2335
sg4
(dp2336
g2274
I351
sg2275
I5
sg2276
Nsg2277
I180436
sg2278
I500100
sg2269
g2335
sg2279
(dp2337
g2281
F0.0
sg2282
F0.0
sg2283
F0.0
sg2284
F1.5825433731079102
ssg2285
I133
sg2286
(lp2338
g2288
ag2289
ag2290
asg24
I59102
sg2291
g2292
sg2293
S'dend[15]'
p2339
sg25
I73500
ssg2293
S'dend[15]'
p2340
ssI6
(dp2341
g24
I59102
sg2269
g10
(g14
S'\xe6\xef\x16\xa5\xdf\xfc\xb2?'
p2342
tp2343
Rp2344
sg4
(dp2345
g2274
I351
sg2275
I6
sg2276
Nsg2277
I180436
sg2278
I600100
sg2269
g2344
sg2279
(dp2346
g2281
F23.0
sg2282
F217.0
sg2283
F0.004261208859947487
sg2284
F1.641682505607605
ssg2285
I133
sg2286
(lp2347
g2288
ag2289
ag2290
asg24
I59102
sg2291
g2292
sg2293
S'dend[15]'
p2348
sg25
I73500
ssg2293
S'dend[15]'
p2349
ssI7
(dp2350
g24
I59102
sg2269
g10
(g14
S'\xcam\x8d\xd8Y\xad\xa6?'
p2351
tp2352
Rp2353
sg4
(dp2354
g2274
I351
sg2275
I7
sg2276
Nsg2277
I180436
sg2278
I700100
sg2269
g2353
sg2279
(dp2355
g2281
F126.0
sg2282
F625.0
sg2283
F0.01453755361973852
sg2284
F1.7301461696624756
ssg2285
I133
sg2286
(lp2356
g2288
ag2289
ag2290
asg24
I59102
sg2291
g2292
sg2293
S'dend[15]'
p2357
sg25
I73500
ssg2293
S'dend[15]'
p2358
ssI8
(dp2359
g24
I59102
sg2269
g10
(g14
S'U\xe3R\xa7\x15\xcc\xa6?'
p2360
tp2361
Rp2362
sg4
(dp2363
g2274
I352
sg2275
I8
sg2276
Nsg2277
I180436
sg2278
I800100
sg2269
g2362
sg2279
(dp2364
g2281
F0.0
sg2282
F0.0
sg2283
F0.0
sg2284
F1.5627590417861938
ssg2285
I133
sg2286
(lp2365
g2288
ag2289
ag2290
asg24
I59102
sg2291
g2292
sg2293
S'dend[16]'
p2366
sg25
I73500
ssg2293
S'dend[16]'
p2367
ssI9
(dp2368
g24
I63515
sg2269
g10
(g14
S'\x19\x8be\xdf|w\xeb?'
p2369
tp2370
Rp2371
sg4
(dp2372
g2274
I338
sg2275
I9
sg2276
Nsg2277
I180436
sg2278
I900100
sg2269
g2371
sg2279
(dp2373
g2281
F141.0
sg2282
F684.0
sg2283
F0.01602363543404358
sg2284
F1.7429389953613281
ssg2285
I133
sg2286
(lp2374
g2288
ag2289
ag2290
asg24
I63515
sg2291
g2292
sg2293
S'dend[2]'
p2375
sg25
I73500
ssg2293
S'dend[2]'
p2376
ssI10
(dp2377
g24
I63515
sg2269
g10
(g14
S'2g\xdb\xbe\xdb\x9c\xeb?'
p2378
tp2379
Rp2380
sg4
(dp2381
g2274
I338
sg2275
I10
sg2276
Nsg2277
I180436
sg2278
I1000100
sg2269
g2380
sg2279
(dp2382
g2281
F185.0
sg2282
F856.0
sg2283
F0.020356700616835064
sg2284
F1.7802401781082153
ssg2285
I133
sg2286
(lp2383
g2288
ag2289
ag2290
asg24
I63515
sg2291
g2292
sg2293
S'dend[2]'
p2384
sg25
I73500
ssg2293
S'dend[2]'
p2385
ssI11
(dp2386
g24
I63515
sg2269
g10
(g14
S'o\xd3\xa0\x87\x8b\xe6\xeb?'
p2387
tp2388
Rp2389
sg4
(dp2390
g2274
I338
sg2275
I11
sg2276
Nsg2277
I180436
sg2278
I1100100
sg2269
g2389
sg2279
(dp2391
g2281
F171.0
sg2282
F799.0
sg2283
F0.01893879720955588
sg2284
F1.7680341005325317
ssg2285
I133
sg2286
(lp2392
g2288
ag2289
ag2290
asg24
I63515
sg2291
g2292
sg2293
S'dend[2]'
p2393
sg25
I73500
ssg2293
S'dend[2]'
p2394
ssI12
(dp2395
g24
I63515
sg2269
g10
(g14
S't)\x12\xdd\xae\x9c\xec?'
p2396
tp2397
Rp2398
sg4
(dp2399
g2274
I338
sg2275
I12
sg2276
Nsg2277
I180436
sg2278
I1200100
sg2269
g2398
sg2279
(dp2400
g2281
F0.0
sg2282
F0.0
sg2283
F0.0
sg2284
F1.5661860704421997
ssg2285
I133
sg2286
(lp2401
g2288
ag2289
ag2290
asg24
I63515
sg2291
g2292
sg2293
S'dend[2]'
p2402
sg25
I73500
ssg2293
S'dend[2]'
p2403
ssI13
(dp2404
g24
I63970
sg2269
F1e-07
sg4
(dp2405
g2274
I0
sg2275
I13
sg2276
Nsg2277
I180436
sg2278
I1300100
sg2269
F1e-07
sg2279
(dp2406
g2281
F139.0
sg2282
F673.0
sg2283
F0.01576274228724045
sg2284
F1.740693211555481
ssg2285
I133
sg2286
(lp2407
g2288
ag2289
ag2290
asg24
I63970
sg2291
g2292
sg2293
S'soma[0]'
p2408
sg25
I73500
ssg2293
S'soma[0]'
p2409
ssI14
(dp2410
g24
I63970
sg2269
F1e-07
sg4
(dp2411
g2274
I0
sg2275
I14
sg2276
Nsg2277
I180436
sg2278
I1400100
sg2269
F1e-07
sg2279
(dp2412
g2281
F0.0
sg2282
F77.0
sg2283
F0.000748731420569321
sg2284
F1.611445426940918
ssg2285
I133
sg2286
(lp2413
g2288
ag2289
ag2290
asg24
I63970
sg2291
g2292
sg2293
S'soma[0]'
p2414
sg25
I73500
ssg2293
S'soma[0]'
p2415
ssI15
(dp2416
g24
I63970
sg2269
g10
(g14
S'\xbc\xd32\xab\x93\xdf\xe5?'
p2417
tp2418
Rp2419
sg4
(dp2420
g2274
I343
sg2275
I15
sg2276
Nsg2277
I180436
sg2278
I1500100
sg2269
g2419
sg2279
(dp2421
g2281
F216.0
sg2282
F975.0
sg2283
F0.023376643396823306
sg2284
F1.8062372207641602
ssg2285
I133
sg2286
(lp2422
g2288
ag2289
ag2290
asg24
I63970
sg2291
g2292
sg2293
S'dend[7]'
p2423
sg25
I73500
ssg2293
S'dend[7]'
p2424
ssI16
(dp2425
g24
I63970
sg2269
g10
(g14
S'R2|1\x13\xbe\x9c?'
p2426
tp2427
Rp2428
sg4
(dp2429
g2274
I353
sg2275
I16
sg2276
Nsg2277
I180436
sg2278
I1600100
sg2269
g2428
sg2279
(dp2430
g2281
F179.0
sg2282
F833.0
sg2283
F0.0197913713311569
sg2284
F1.7753734588623047
ssg2285
I133
sg2286
(lp2431
g2288
ag2289
ag2290
asg24
I63970
sg2291
g2292
sg2293
S'dend[17]'
p2432
sg25
I73500
ssg2293
S'dend[17]'
p2433
ssI17
(dp2434
g24
I63970
sg2269
g10
(g14
S'T\xb8\x8b7\xacP\xb4?'
p2435
tp2436
Rp2437
sg4
(dp2438
g2274
I353
sg2275
I17
sg2276
Nsg2277
I180436
sg2278
I1700100
sg2269
g2437
sg2279
(dp2439
g2281
F205.0
sg2282
F932.0
sg2283
F0.022275865132727765
sg2284
F1.796761155128479
ssg2285
I133
sg2286
(lp2440
g2288
ag2289
ag2290
asg24
I63970
sg2291
g2292
sg2293
S'dend[17]'
p2441
sg25
I73500
ssg2293
S'dend[17]'
p2442
ssI18
(dp2443
g24
I63970
sg2269
g10
(g14
S'\x06\x19\xb0\xff\xa1\xc9\xc1?'
p2444
tp2445
Rp2446
sg4
(dp2447
g2274
I353
sg2275
I18
sg2276
Nsg2277
I180436
sg2278
I1800100
sg2269
g2446
sg2279
(dp2448
g2281
F45.0
sg2282
F303.0
sg2283
F0.006425108619264462
sg2284
F1.6603103876113892
ssg2285
I133
sg2286
(lp2449
g2288
ag2289
ag2290
asg24
I63970
sg2291
g2292
sg2293
S'dend[17]'
p2450
sg25
I73500
ssg2293
S'dend[17]'
p2451
ssI19
(dp2452
g24
I68593
sg2269
g10
(g14
S'*F\xd5\xf6\x9b\xc4\xcb?'
p2453
tp2454
Rp2455
sg4
(dp2456
g2274
I352
sg2275
I19
sg2276
Nsg2277
I180436
sg2278
I1900100
sg2269
g2455
sg2279
(dp2457
g2281
F163.0
sg2282
F769.0
sg2283
F0.018164565421186194
sg2284
F1.761369228363037
ssg2285
I133
sg2286
(lp2458
g2288
ag2289
ag2290
asg24
I68593
sg2291
g2292
sg2293
S'dend[16]'
p2459
sg25
I73500
ssg2293
S'dend[16]'
p2460
ssI20
(dp2461
g24
I68593
sg2269
g10
(g14
S'F\x16\xf4fjp\xcf?'
p2462
tp2463
Rp2464
sg4
(dp2465
g2274
I352
sg2275
I20
sg2276
Nsg2277
I180436
sg2278
I2000100
sg2269
g2464
sg2279
(dp2466
g2281
F318.0
sg2282
F1379.0
sg2283
F0.03353328127915537
sg2284
F1.8936703205108643
ssg2285
I133
sg2286
(lp2467
g2288
ag2289
ag2290
asg24
I68593
sg2291
g2292
sg2293
S'dend[16]'
p2468
sg25
I73500
ssg2293
S'dend[16]'
p2469
ssI21
(dp2470
g24
I68593
sg2269
g10
(g14
S'\xa5\xcd\x0e%\xfa\xaa\xa2?'
p2471
tp2472
Rp2473
sg4
(dp2474
g2274
I353
sg2275
I21
sg2276
Nsg2277
I180436
sg2278
I2100100
sg2269
g2473
sg2279
(dp2475
g2281
F1.0
sg2282
F132.0
sg2283
F0.002137863542680065
sg2284
F1.623403787612915
ssg2285
I133
sg2286
(lp2476
g2288
ag2289
ag2290
asg24
I68593
sg2291
g2292
sg2293
S'dend[17]'
p2477
sg25
I73500
ssg2293
S'dend[17]'
p2478
ssI22
(dp2479
g24
I68593
sg2269
g10
(g14
S'\xec\xc3\xda&\xd0\xc7\xa6?'
p2480
tp2481
Rp2482
sg4
(dp2483
g2274
I351
sg2275
I22
sg2276
Nsg2277
I180436
sg2278
I2200100
sg2269
g2482
sg2279
(dp2484
g2281
F104.0
sg2282
F536.0
sg2283
F0.012301952028217279
sg2284
F1.7109010219573975
ssg2285
I133
sg2286
(lp2485
g2288
ag2289
ag2290
asg24
I68593
sg2291
g2292
sg2293
S'dend[15]'
p2486
sg25
I73500
ssg2293
S'dend[15]'
p2487
ssI23
(dp2488
g24
I68593
sg2269
g10
(g14
S'Xpv~\xe60\xc8?'
p2489
tp2490
Rp2491
sg4
(dp2492
g2274
I352
sg2275
I23
sg2276
Nsg2277
I180436
sg2278
I2300100
sg2269
g2491
sg2279
(dp2493
g2281
F0.0
sg2282
F42.0
sg2283
F0.0
sg2284
F1.603834867477417
ssg2285
I133
sg2286
(lp2494
g2288
ag2289
ag2290
asg24
I68593
sg2291
g2292
sg2293
S'dend[16]'
p2495
sg25
I73500
ssg2293
S'dend[16]'
p2496
ssI24
(dp2497
g24
I68593
sg2269
g10
(g14
S'\xf6\xca\xb9>VR\xe8?'
p2498
tp2499
Rp2500
sg4
(dp2501
g2274
I349
sg2275
I24
sg2276
Nsg2277
I180436
sg2278
I2400100
sg2269
g2500
sg2279
(dp2502
g2281
F202.0
sg2282
F923.0
sg2283
F0.02205295980616959
sg2284
F1.7948423624038696
ssg2285
I133
sg2286
(lp2503
g2288
ag2289
ag2290
asg24
I68593
sg2291
g2292
sg2293
S'dend[13]'
p2504
sg25
I73500
ssg2293
S'dend[13]'
p2505
ssI25
(dp2506
g24
I68777
sg2269
g10
(g14
S'~.\xad\xb7m\x94\xd4?'
p2507
tp2508
Rp2509
sg4
(dp2510
g2274
I338
sg2275
I25
sg2276
Nsg2277
I180436
sg2278
I2500100
sg2269
g2509
sg2279
(dp2511
g2281
F155.0
sg2282
F738.0
sg2283
F0.017389925985246125
sg2284
F1.754700779914856
ssg2285
I133
sg2286
(lp2512
g2288
ag2289
ag2290
asg24
I68777
sg2291
g2292
sg2293
S'dend[2]'
p2513
sg25
I73500
ssg2293
S'dend[2]'
p2514
ssI26
(dp2515
g24
I68777
sg2269
g10
(g14
S"'\x11x\x0e/\x10\xd6?"
p2516
tp2517
Rp2518
sg4
(dp2519
g2274
I338
sg2275
I26
sg2276
Nsg2277
I180436
sg2278
I2600100
sg2269
g2518
sg2279
(dp2520
g2281
F0.0
sg2282
F0.0
sg2283
F0.0
sg2284
F1.5850168466567993
ssg2285
I133
sg2286
(lp2521
g2288
ag2289
ag2290
asg24
I68777
sg2291
g2292
sg2293
S'dend[2]'
p2522
sg25
I73500
ssg2293
S'dend[2]'
p2523
ssI27
(dp2524
g24
I68777
sg2269
g10
(g14
S'\xab\x18J\xb4\n\xad\xa3?'
p2525
tp2526
Rp2527
sg4
(dp2528
g2274
I339
sg2275
I27
sg2276
Nsg2277
I180436
sg2278
I2700100
sg2269
g2527
sg2279
(dp2529
g2281
F0.0
sg2282
F0.0
sg2283
F0.0
sg2284
F1.5821207761764526
ssg2285
I133
sg2286
(lp2530
g2288
ag2289
ag2290
asg24
I68777
sg2291
g2292
sg2293
S'dend[3]'
p2531
sg25
I73500
ssg2293
S'dend[3]'
p2532
ssI28
(dp2533
g24
I68777
sg2269
g10
(g14
S'\xa2}\xee\xc1P\xec\xb2?'
p2534
tp2535
Rp2536
sg4
(dp2537
g2274
I356
sg2275
I28
sg2276
Nsg2277
I180436
sg2278
I2800100
sg2269
g2536
sg2279
(dp2538
g2281
F187.0
sg2282
F864.0
sg2283
F0.020573270528923625
sg2284
F1.7821044921875
ssg2285
I133
sg2286
(lp2539
g2288
ag2289
ag2290
asg24
I68777
sg2291
g2292
sg2293
S'dend[20]'
p2540
sg25
I73500
ssg2293
S'dend[20]'
p2541
ssI29
(dp2542
g24
I68777
sg2269
g10
(g14
S'\xd6\xfa\x99s\x19\xbe\xc0?'
p2543
tp2544
Rp2545
sg4
(dp2546
g2274
I347
sg2275
I29
sg2276
Nsg2277
I180436
sg2278
I2900100
sg2269
g2545
sg2279
(dp2547
g2281
F30.0
sg2282
F245.0
sg2283
F0.004966225920676467
sg2284
F1.6477515697479248
ssg2285
I133
sg2286
(lp2548
g2288
ag2289
ag2290
asg24
I68777
sg2291
g2292
sg2293
S'dend[11]'
p2549
sg25
I73500
ssg2293
S'dend[11]'
p2550
ssI30
(dp2551
g24
I69252
sg2269
g10
(g14
S'f\xa4\xb7\\R%\xde?'
p2552
tp2553
Rp2554
sg4
(dp2555
g2274
I338
sg2275
I30
sg2276
Nsg2277
I180436
sg2278
I3000100
sg2269
g2554
sg2279
(dp2556
g2281
F559.0
sg2282
F18.0
sg2283
F0.08589931959635608
sS'tau_d_GABAA'
p2557
F7.500335693359375
sS'tau_r_GABAA'
p2558
F0.0094035323438437
ssg2285
I1
sg2286
(lp2559
S'%s.e_GABAA = -80.0 %s.e_GABAB = -75.8354310081'
p2560
aS'%s.Use *= 0.423677166383'
p2561
asg24
I69252
sg2291
S'ProbGABAAB_EMS'
p2562
sg2293
S'dend[2]'
p2563
sg25
I73500
ssg2293
S'dend[2]'
p2564
ssI31
(dp2565
g24
I69252
sg2269
g10
(g14
S'\xf84<O\x00\xf0\xd7?'
p2566
tp2567
Rp2568
sg4
(dp2569
g2274
I338
sg2275
I31
sg2276
Nsg2277
I180436
sg2278
I3100100
sg2269
g2568
sg2279
(dp2570
g2281
F1085.0
sg2282
F29.0
sg2283
F0.15750216216261917
sg2557
F10.360391616821289
sg2558
F0.038636747186526536
ssg2285
I1
sg2286
(lp2571
g2560
ag2561
asg24
I69252
sg2291
g2562
sg2293
S'dend[2]'
p2572
sg25
I73500
ssg2293
S'dend[2]'
p2573
ssI32
(dp2574
g24
I69252
sg2269
g10
(g14
S'\x11\x98\xaf\x06\xf1(\xea?'
p2575
tp2576
Rp2577
sg4
(dp2578
g2274
I339
sg2275
I32
sg2276
Nsg2277
I180436
sg2278
I3200100
sg2269
g2577
sg2279
(dp2579
g2281
F924.0
sg2282
F26.0
sg2283
F0.13556151308285674
sg2557
F9.4840087890625
sg2558
F0.10672911099139434
ssg2285
I1
sg2286
(lp2580
g2560
ag2561
asg24
I69252
sg2291
g2562
sg2293
S'dend[3]'
p2581
sg25
I73500
ssg2293
S'dend[3]'
p2582
ssI33
(dp2583
g24
I69252
sg2269
g10
(g14
S'\xcb\xc2\x0e5(M\xda?'
p2584
tp2585
Rp2586
sg4
(dp2587
g2274
I340
sg2275
I33
sg2276
Nsg2277
I180436
sg2278
I3300100
sg2269
g2586
sg2279
(dp2588
g2281
F344.0
sg2282
F13.0
sg2283
F0.05668843414500193
sg2557
F6.333555698394775
sg2558
F0.05635660586075628
ssg2285
I1
sg2286
(lp2589
g2560
ag2561
asg24
I69252
sg2291
g2562
sg2293
S'dend[4]'
p2590
sg25
I73500
ssg2293
S'dend[4]'
p2591
ssI34
(dp2592
g24
I69252
sg2269
g10
(g14
S'V\xb3\xa8\xbao\xc7\xd9?'
p2593
tp2594
Rp2595
sg4
(dp2596
g2274
I338
sg2275
I34
sg2276
Nsg2277
I180436
sg2278
I3400100
sg2269
g2595
sg2279
(dp2597
g2281
F733.0
sg2282
F22.0
sg2283
F0.10965550436221543
sg2557
F8.449236869812012
sg2558
F0.46021055800771515
ssg2285
I1
sg2286
(lp2598
g2560
ag2561
asg24
I69252
sg2291
g2562
sg2293
S'dend[2]'
p2599
sg25
I73500
ssg2293
S'dend[2]'
p2600
ssI35
(dp2601
g24
I69252
sg2269
g10
(g14
S',L\x87K!F\xd8?'
p2602
tp2603
Rp2604
sg4
(dp2605
g2274
I338
sg2275
I35
sg2276
Nsg2277
I180436
sg2278
I3500100
sg2269
g2604
sg2279
(dp2606
g2281
F656.0
sg2282
F20.0
sg2283
F0.09916062675767702
sg2557
F8.030035972595215
sg2558
F0.07870327886481854
ssg2285
I1
sg2286
(lp2607
g2560
ag2561
asg24
I69252
sg2291
g2562
sg2293
S'dend[2]'
p2608
sg25
I73500
ssg2293
S'dend[2]'
p2609
ssI36
(dp2610
g24
I69252
sg2269
g10
(g14
S'\xb0\xde\xbf\x8d\xb5\xd5\xd7?'
p2611
tp2612
Rp2613
sg4
(dp2614
g2274
I338
sg2275
I36
sg2276
Nsg2277
I180436
sg2278
I3600100
sg2269
g2613
sg2279
(dp2615
g2281
F685.0
sg2282
F21.0
sg2283
F0.1030711997395257
sg2557
F8.186238288879395
sg2558
F0.0648085989385506
ssg2285
I1
sg2286
(lp2616
g2560
ag2561
asg24
I69252
sg2291
g2562
sg2293
S'dend[2]'
p2617
sg25
I73500
ssg2293
S'dend[2]'
p2618
ssI37
(dp2619
g24
I69252
sg2269
g10
(g14
S'z\xa9]\x8b;\xe1\xd0?'
p2620
tp2621
Rp2622
sg4
(dp2623
g2274
I338
sg2275
I37
sg2276
Nsg2277
I180436
sg2278
I3700100
sg2269
g2622
sg2279
(dp2624
g2281
F540.0
sg2282
F17.0
sg2283
F0.0833079636557946
sg2557
F7.3968281745910645
sg2558
F0.07370743830656003
ssg2285
I1
sg2286
(lp2625
g2560
ag2561
asg24
I69252
sg2291
g2562
sg2293
S'dend[2]'
p2626
sg25
I73500
ssg2293
S'dend[2]'
p2627
ssI38
(dp2628
g24
I69252
sg2269
g10
(g14
S'\x87\tP\xfb\xac&\xcf?'
p2629
tp2630
Rp2631
sg4
(dp2632
g2274
I338
sg2275
I38
sg2276
Nsg2277
I180436
sg2278
I3800100
sg2269
g2631
sg2279
(dp2633
g2281
F603.0
sg2282
F19.0
sg2283
F0.09191675465067509
sg2557
F7.740692138671875
sg2558
F0.11769947008803941
ssg2285
I1
sg2286
(lp2634
g2560
ag2561
asg24
I69252
sg2291
g2562
sg2293
S'dend[2]'
p2635
sg25
I73500
ssg2293
S'dend[2]'
p2636
ssI39
(dp2637
g24
I69252
sg2269
g10
(g14
S'\xb2\xb9\x84\x19\xc9G\xcc?'
p2638
tp2639
Rp2640
sg4
(dp2641
g2274
I338
sg2275
I39
sg2276
Nsg2277
I180436
sg2278
I3900100
sg2269
g2640
sg2279
(dp2642
g2281
F908.0
sg2282
F25.0
sg2283
F0.1333528367155973
sg2557
F9.395787239074707
sg2558
F0.20108804219183832
ssg2285
I1
sg2286
(lp2643
g2560
ag2561
asg24
I69252
sg2291
g2562
sg2293
S'dend[2]'
p2644
sg25
I73500
ssg2293
S'dend[2]'
p2645
ssI40
(dp2646
g24
I70295
sg2269
g10
(g14
S"\xba\xf6'UA\x00\xab?"
p2647
tp2648
Rp2649
sg4
(dp2650
g2274
I348
sg2275
I40
sg2276
Nsg2277
I180436
sg2278
I4000100
sg2269
g2649
sg2279
(dp2651
g2281
F0.0
sg2282
F0.0
sg2283
F0.0
sg2284
F1.5698208808898926
ssg2285
I133
sg2286
(lp2652
g2288
ag2289
ag2290
asg24
I70295
sg2291
g2292
sg2293
S'dend[12]'
p2653
sg25
I73500
ssg2293
S'dend[12]'
p2654
ssI41
(dp2655
g24
I70295
sg2269
g10
(g14
S'\xaef\x19\x00\xd7\xa2\xb6?'
p2656
tp2657
Rp2658
sg4
(dp2659
g2274
I348
sg2275
I41
sg2276
Nsg2277
I180436
sg2278
I4100100
sg2269
g2658
sg2279
(dp2660
g2281
F331.0
sg2282
F1427.0
sg2283
F0.03476209463460795
sg2284
F1.904248595237732
ssg2285
I133
sg2286
(lp2661
g2288
ag2289
ag2290
asg24
I70295
sg2291
g2292
sg2293
S'dend[12]'
p2662
sg25
I73500
ssg2293
S'dend[12]'
p2663
ssI42
(dp2664
g24
I70295
sg2269
g10
(g14
S'\x14\xd4\xc2y\xca\xd2\xbf?'
p2665
tp2666
Rp2667
sg4
(dp2668
g2274
I348
sg2275
I42
sg2276
Nsg2277
I180436
sg2278
I4200100
sg2269
g2667
sg2279
(dp2669
g2281
F178.0
sg2282
F827.0
sg2283
F0.01964800661396847
sg2284
F1.774139404296875
ssg2285
I133
sg2286
(lp2670
g2288
ag2289
ag2290
asg24
I70295
sg2291
g2292
sg2293
S'dend[12]'
p2671
sg25
I73500
ssg2293
S'dend[12]'
p2672
ssI43
(dp2673
g24
I70295
sg2269
g10
(g14
S'\xe9}\xd6\x12\xc1\x8c\xc3?'
p2674
tp2675
Rp2676
sg4
(dp2677
g2274
I348
sg2275
I43
sg2276
Nsg2277
I180436
sg2278
I4300100
sg2269
g2676
sg2279
(dp2678
g2281
F0.0
sg2282
F0.0
sg2283
F0.0
sg2284
F1.5607341527938843
ssg2285
I133
sg2286
(lp2679
g2288
ag2289
ag2290
asg24
I70295
sg2291
g2292
sg2293
S'dend[12]'
p2680
sg25
I73500
ssg2293
S'dend[12]'
p2681
ssI44
(dp2682
g24
I70295
sg2269
g10
(g14
S'\xc2\xaa\x01N\xf3\x03\xc8?'
p2683
tp2684
Rp2685
sg4
(dp2686
g2274
I348
sg2275
I44
sg2276
Nsg2277
I180436
sg2278
I4400100
sg2269
g2685
sg2279
(dp2687
g2281
F20.0
sg2282
F204.0
sg2283
F0.003945947016685467
sg2284
F1.638968586921692
ssg2285
I133
sg2286
(lp2688
g2288
ag2289
ag2290
asg24
I70295
sg2291
g2292
sg2293
S'dend[12]'
p2689
sg25
I73500
ssg2293
S'dend[12]'
p2690
ssI45
(dp2691
g24
I70295
sg2269
g10
(g14
S'%Ub{z9\xcc?'
p2692
tp2693
Rp2694
sg4
(dp2695
g2274
I348
sg2275
I45
sg2276
Nsg2277
I180436
sg2278
I4500100
sg2269
g2694
sg2279
(dp2696
g2281
F95.0
sg2282
F502.0
sg2283
F0.01144031099377696
sg2284
F1.7034835815429688
ssg2285
I133
sg2286
(lp2697
g2288
ag2289
ag2290
asg24
I70295
sg2291
g2292
sg2293
S'dend[12]'
p2698
sg25
I73500
ssg2293
S'dend[12]'
p2699
ssI46
(dp2700
g24
I70295
sg2269
g10
(g14
S'\x7f\xc94\xab\x80\xfc\xba?'
p2701
tp2702
Rp2703
sg4
(dp2704
g2274
I348
sg2275
I46
sg2276
Nsg2277
I180436
sg2278
I4600100
sg2269
g2703
sg2279
(dp2705
g2281
F80.0
sg2282
F443.0
sg2283
F0.00996468975367045
sg2284
F1.690780758857727
ssg2285
I133
sg2286
(lp2706
g2288
ag2289
ag2290
asg24
I70295
sg2291
g2292
sg2293
S'dend[12]'
p2707
sg25
I73500
ssg2293
S'dend[12]'
p2708
ssI47
(dp2709
g24
I70295
sg2269
g10
(g14
S'5&I\xaf\x92\xf1\xe6?'
p2710
tp2711
Rp2712
sg4
(dp2713
g2274
I349
sg2275
I47
sg2276
Nsg2277
I180436
sg2278
I4700100
sg2269
g2712
sg2279
(dp2714
g2281
F208.0
sg2282
F946.0
sg2283
F0.02262505811870115
sg2284
F1.799767255783081
ssg2285
I133
sg2286
(lp2715
g2288
ag2289
ag2290
asg24
I70295
sg2291
g2292
sg2293
S'dend[13]'
p2716
sg25
I73500
ssg2293
S'dend[13]'
p2717
ssI48
(dp2718
g24
I70295
sg2269
g10
(g14
S"\xb8'\xe8j&\xe2\xbe?"
p2719
tp2720
Rp2721
sg4
(dp2722
g2274
I338
sg2275
I48
sg2276
Nsg2277
I180436
sg2278
I4800100
sg2269
g2721
sg2279
(dp2723
g2281
F163.0
sg2282
F769.0
sg2283
F0.018177368670673762
sg2284
F1.761479377746582
ssg2285
I133
sg2286
(lp2724
g2288
ag2289
ag2290
asg24
I70295
sg2291
g2292
sg2293
S'dend[2]'
p2725
sg25
I73500
ssg2293
S'dend[2]'
p2726
ssI49
(dp2727
g24
I70295
sg2269
g10
(g14
S'\xbdX\\\xc3\xac\x11\xc2?'
p2728
tp2729
Rp2730
sg4
(dp2731
g2274
I338
sg2275
I49
sg2276
Nsg2277
I180436
sg2278
I4900100
sg2269
g2730
sg2279
(dp2732
g2281
F175.0
sg2282
F815.0
sg2283
F0.01934453117318924
sg2284
F1.7715269327163696
ssg2285
I133
sg2286
(lp2733
g2288
ag2289
ag2290
asg24
I70295
sg2291
g2292
sg2293
S'dend[2]'
p2734
sg25
I73500
ssg2293
S'dend[2]'
p2735
ssI50
(dp2736
g24
I70295
sg2269
g10
(g14
S'\xa8\x9c\x8fW\x1d\x05\xd1?'
p2737
tp2738
Rp2739
sg4
(dp2740
g2274
I338
sg2275
I50
sg2276
Nsg2277
I180436
sg2278
I5000100
sg2269
g2739
sg2279
(dp2741
g2281
F56.0
sg2282
F347.0
sg2283
F0.007555648401599487
sg2284
F1.670042634010315
ssg2285
I133
sg2286
(lp2742
g2288
ag2289
ag2290
asg24
I70295
sg2291
g2292
sg2293
S'dend[2]'
p2743
sg25
I73500
ssg2293
S'dend[2]'
p2744
ssI51
(dp2745
g24
I70295
sg2269
g10
(g14
S'\xbd\xffi\xca\xd1k\xd2?'
p2746
tp2747
Rp2748
sg4
(dp2749
g2274
I338
sg2275
I51
sg2276
Nsg2277
I180436
sg2278
I5100100
sg2269
g2748
sg2279
(dp2750
g2281
F337.0
sg2282
F1453.0
sg2283
F0.03541977816506879
sg2284
F1.9099102020263672
ssg2285
I133
sg2286
(lp2751
g2288
ag2289
ag2290
asg24
I70295
sg2291
g2292
sg2293
S'dend[2]'
p2752
sg25
I73500
ssg2293
S'dend[2]'
p2753
ssI52
(dp2754
g24
I70505
sg2269
g10
(g14
S'0.\xb5\xb1\x9a0\xe3?'
p2755
tp2756
Rp2757
sg4
(dp2758
g2274
I339
sg2275
I52
sg2276
Nsg2277
I180436
sg2278
I5200100
sg2269
g2757
sg2279
(dp2759
g2281
F59.0
sg2282
F359.0
sg2283
F0.007847707763047046
sg2284
F1.672556757926941
ssg2285
I133
sg2286
(lp2760
g2288
ag2289
ag2290
asg24
I70505
sg2291
g2292
sg2293
S'dend[3]'
p2761
sg25
I73500
ssg2293
S'dend[3]'
p2762
ssI53
(dp2763
g24
I70505
sg2269
g10
(g14
S'|"\xd8\xae\xab\xf3\xda?'
p2764
tp2765
Rp2766
sg4
(dp2767
g2274
I347
sg2275
I53
sg2276
Nsg2277
I180436
sg2278
I5300100
sg2269
g2766
sg2279
(dp2768
g2281
F3.0
sg2282
F137.0
sg2283
F0.0022583422242173482
sg2284
F1.6244409084320068
ssg2285
I133
sg2286
(lp2769
g2288
ag2289
ag2290
asg24
I70505
sg2291
g2292
sg2293
S'dend[11]'
p2770
sg25
I73500
ssg2293
S'dend[11]'
p2771
ssI54
(dp2772
g24
I70505
sg2269
g10
(g14
S'\x8a<\xffT\x8f\xba\xd1?'
p2773
tp2774
Rp2775
sg4
(dp2776
g2274
I340
sg2275
I54
sg2276
Nsg2277
I180436
sg2278
I5400100
sg2269
g2775
sg2279
(dp2777
g2281
F197.0
sg2282
F902.0
sg2283
F0.02152006446715011
sg2284
F1.7902549505233765
ssg2285
I133
sg2286
(lp2778
g2288
ag2289
ag2290
asg24
I70505
sg2291
g2292
sg2293
S'dend[4]'
p2779
sg25
I73500
ssg2293
S'dend[4]'
p2780
ssI55
(dp2781
g24
I70505
sg2269
g10
(g14
S'D\xe7\x85\xf9(\x15\xd2?'
p2782
tp2783
Rp2784
sg4
(dp2785
g2274
I339
sg2275
I55
sg2276
Nsg2277
I180436
sg2278
I5500100
sg2269
g2784
sg2279
(dp2786
g2281
F37.0
sg2282
F273.0
sg2283
F0.005688841282807673
sg2284
F1.6539722681045532
ssg2285
I133
sg2286
(lp2787
g2288
ag2289
ag2290
asg24
I70505
sg2291
g2292
sg2293
S'dend[3]'
p2788
sg25
I73500
ssg2293
S'dend[3]'
p2789
ssI56
(dp2790
g24
I70544
sg2269
g10
(g14
S'\xbb\x07\x14\xc9\x00O\xba?'
p2791
tp2792
Rp2793
sg4
(dp2794
g2274
I338
sg2275
I56
sg2276
Nsg2277
I180436
sg2278
I5600100
sg2269
g2793
sg2279
(dp2795
g2281
F44.0
sg2282
F298.0
sg2283
F0.006322662500633521
sg2284
F1.6594284772872925
ssg2285
I133
sg2286
(lp2796
g2288
ag2289
ag2290
asg24
I70544
sg2291
g2292
sg2293
S'dend[2]'
p2797
sg25
I73500
ssg2293
S'dend[2]'
p2798
ssI57
(dp2799
g24
I70544
sg2269
g10
(g14
S'Y\xaf\xdd\xefQ\x85\xb6?'
p2800
tp2801
Rp2802
sg4
(dp2803
g2274
I338
sg2275
I57
sg2276
Nsg2277
I180436
sg2278
I5700100
sg2269
g2802
sg2279
(dp2804
g2281
F280.0
sg2282
F1231.0
sg2283
F0.02980268025816682
sg2284
F1.861555576324463
ssg2285
I133
sg2286
(lp2805
g2288
ag2289
ag2290
asg24
I70544
sg2291
g2292
sg2293
S'dend[2]'
p2806
sg25
I73500
ssg2293
S'dend[2]'
p2807
ssI58
(dp2808
g24
I70544
sg2269
g10
(g14
S'\xd9\x10\xbfrR!\xb1?'
p2809
tp2810
Rp2811
sg4
(dp2812
g2274
I338
sg2275
I58
sg2276
Nsg2277
I180436
sg2278
I5800100
sg2269
g2811
sg2279
(dp2813
g2281
F99.0
sg2282
F516.0
sg2283
F0.011807472928863859
sg2284
F1.7066442966461182
ssg2285
I133
sg2286
(lp2814
g2288
ag2289
ag2290
asg24
I70544
sg2291
g2292
sg2293
S'dend[2]'
p2815
sg25
I73500
ssg2293
S'dend[2]'
p2816
ssI59
(dp2817
g24
I70544
sg2269
g10
(g14
S'>b\xd5\xc1>-\xa5?'
p2818
tp2819
Rp2820
sg4
(dp2821
g2274
I338
sg2275
I59
sg2276
Nsg2277
I180436
sg2278
I5900100
sg2269
g2820
sg2279
(dp2822
g2281
F165.0
sg2282
F778.0
sg2283
F0.018393381637514892
sg2284
F1.7633389234542847
ssg2285
I133
sg2286
(lp2823
g2288
ag2289
ag2290
asg24
I70544
sg2291
g2292
sg2293
S'dend[2]'
p2824
sg25
I73500
ssg2293
S'dend[2]'
p2825
ssI60
(dp2826
g24
I70544
sg2269
g10
(g14
S'1\x14L\x87o\xf6\x95?'
p2827
tp2828
Rp2829
sg4
(dp2830
g2274
I338
sg2275
I60
sg2276
Nsg2277
I180436
sg2278
I6000100
sg2269
g2829
sg2279
(dp2831
g2281
F138.0
sg2282
F670.0
sg2283
F0.01567760755882366
sg2284
F1.7399603128433228
ssg2285
I133
sg2286
(lp2832
g2288
ag2289
ag2290
asg24
I70544
sg2291
g2292
sg2293
S'dend[2]'
p2833
sg25
I73500
ssg2293
S'dend[2]'
p2834
ssI61
(dp2835
g24
I70544
sg2269
g10
(g14
S'\xfbS\x91\x13\xf0\x87\xba?'
p2836
tp2837
Rp2838
sg4
(dp2839
g2274
I356
sg2275
I61
sg2276
Nsg2277
I180436
sg2278
I6100100
sg2269
g2838
sg2279
(dp2840
g2281
F225.0
sg2282
F1013.0
sg2283
F0.02433095934149179
sg2284
F1.8144524097442627
ssg2285
I133
sg2286
(lp2841
g2288
ag2289
ag2290
asg24
I70544
sg2291
g2292
sg2293
S'dend[20]'
p2842
sg25
I73500
ssg2293
S'dend[20]'
p2843
ssI62
(dp2844
g24
I70544
sg2269
g10
(g14
S'\x00g\xfb\xb0W\xf3\xca?'
p2845
tp2846
Rp2847
sg4
(dp2848
g2274
I350
sg2275
I62
sg2276
Nsg2277
I180436
sg2278
I6200100
sg2269
g2847
sg2279
(dp2849
g2281
F104.0
sg2282
F538.0
sg2283
F0.012356746872176095
sg2284
F1.71137273311615
ssg2285
I133
sg2286
(lp2850
g2288
ag2289
ag2290
asg24
I70544
sg2291
g2292
sg2293
S'dend[14]'
p2851
sg25
I73500
ssg2293
S'dend[14]'
p2852
ssI63
(dp2853
g24
I70544
sg2269
g10
(g14
S'8\xdf\n\x05\x04\x08\x99?'
p2854
tp2855
Rp2856
sg4
(dp2857
g2274
I353
sg2275
I63
sg2276
Nsg2277
I180436
sg2278
I6300100
sg2269
g2856
sg2279
(dp2858
g2281
F127.0
sg2282
F625.0
sg2283
F0.014558527996003089
sg2284
F1.7303266525268555
ssg2285
I133
sg2286
(lp2859
g2288
ag2289
ag2290
asg24
I70544
sg2291
g2292
sg2293
S'dend[17]'
p2860
sg25
I73500
ssg2293
S'dend[17]'
p2861
ssI64
(dp2862
g24
I70544
sg2269
g10
(g14
S'\x1c\x05\xab,\x8c\xf4\xb9?'
p2863
tp2864
Rp2865
sg4
(dp2866
g2274
I338
sg2275
I64
sg2276
Nsg2277
I180436
sg2278
I6400100
sg2269
g2865
sg2279
(dp2867
g2281
F48.0
sg2282
F317.0
sg2283
F0.006793371462439523
sg2284
F1.663480520248413
ssg2285
I133
sg2286
(lp2868
g2288
ag2289
ag2290
asg24
I70544
sg2291
g2292
sg2293
S'dend[2]'
p2869
sg25
I73500
ssg2293
S'dend[2]'
p2870
ssI65
(dp2871
g24
I73289
sg2269
g10
(g14
S'\xbc\x12\x1d\x19\x10=\xe1?'
p2872
tp2873
Rp2874
sg4
(dp2875
g2274
I351
sg2275
I65
sg2276
Nsg2277
I180436
sg2278
I6500100
sg2269
g2874
sg2279
(dp2876
g2281
F7.0
sg2282
F156.0
sg2283
F0.0027298927705376795
sg2284
F1.62850022315979
ssg2285
I133
sg2286
(lp2877
g2288
ag2289
ag2290
asg24
I73289
sg2291
g2292
sg2293
S'dend[15]'
p2878
sg25
I73500
ssg2293
S'dend[15]'
p2879
ssI66
(dp2880
g24
I73289
sg2269
g10
(g14
S'B\xd7\xff\x17EV\xeb?'
p2881
tp2882
Rp2883
sg4
(dp2884
g2274
I349
sg2275
I66
sg2276
Nsg2277
I180436
sg2278
I6600100
sg2269
g2883
sg2279
(dp2885
g2281
F271.0
sg2282
F1193.0
sg2283
F0.02885345082044341
sg2284
F1.8533841371536255
ssg2285
I133
sg2286
(lp2886
g2288
ag2289
ag2290
asg24
I73289
sg2291
g2292
sg2293
S'dend[13]'
p2887
sg25
I73500
ssg2293
S'dend[13]'
p2888
ssI67
(dp2889
g24
I73289
sg2269
g10
(g14
S'\xf7C\xd79{u\xee?'
p2890
tp2891
Rp2892
sg4
(dp2893
g2274
I349
sg2275
I67
sg2276
Nsg2277
I180436
sg2278
I6700100
sg2269
g2892
sg2279
(dp2894
g2281
F286.0
sg2282
F1251.0
sg2283
F0.030323978413281164
sg2284
F1.866043210029602
ssg2285
I133
sg2286
(lp2895
g2288
ag2289
ag2290
asg24
I73289
sg2291
g2292
sg2293
S'dend[13]'
p2896
sg25
I73500
ssg2293
S'dend[13]'
p2897
ssI68
(dp2898
g24
I73289
sg2269
F1e-07
sg4
(dp2899
g2274
I0
sg2275
I68
sg2276
Nsg2277
I180436
sg2278
I6800100
sg2269
F1e-07
sg2279
(dp2900
g2281
F139.0
sg2282
F674.0
sg2283
F0.015777786300124445
sg2284
F1.740822672843933
ssg2285
I133
sg2286
(lp2901
g2288
ag2289
ag2290
asg24
I73289
sg2291
g2292
sg2293
S'soma[0]'
p2902
sg25
I73500
ssg2293
S'soma[0]'
p2903
ssI69
(dp2904
g24
I73289
sg2269
F1e-07
sg4
(dp2905
g2274
I0
sg2275
I69
sg2276
Nsg2277
I180436
sg2278
I6900100
sg2269
F1e-07
sg2279
(dp2906
g2281
F33.0
sg2282
F258.0
sg2283
F0.005296751828616048
sg2284
F1.6505969762802124
ssg2285
I133
sg2286
(lp2907
g2288
ag2289
ag2290
asg24
I73289
sg2291
g2292
sg2293
S'soma[0]'
p2908
sg25
I73500
ssg2293
S'soma[0]'
p2909
ssI70
(dp2910
g24
I73289
sg2269
F1e-07
sg4
(dp2911
g2274
I0
sg2275
I70
sg2276
Nsg2277
I180436
sg2278
I7000100
sg2269
F1e-07
sg2279
(dp2912
g2281
F127.0
sg2282
F625.0
sg2283
F0.014549635047413568
sg2284
F1.7302501201629639
ssg2285
I133
sg2286
(lp2913
g2288
ag2289
ag2290
asg24
I73289
sg2291
g2292
sg2293
S'soma[0]'
p2914
sg25
I73500
ssg2293
S'soma[0]'
p2915
ssI71
(dp2916
g24
I74118
sg2269
g10
(g14
S'\xc4\xd6\x8bS\x8dY\xc9?'
p2917
tp2918
Rp2919
sg4
(dp2920
g2274
I351
sg2275
I71
sg2276
Nsg2277
I180436
sg2278
I7100100
sg2269
g2919
sg2279
(dp2921
g2281
F497.0
sg2282
F16.0
sg2283
F0.07751664510064885
sg2557
F7.165503978729248
sg2558
F0.12204723188764538
ssg2285
I1
sg2286
(lp2922
g2560
ag2561
asg24
I74118
sg2291
g2562
sg2293
S'dend[15]'
p2923
sg25
I73500
ssg2293
S'dend[15]'
p2924
ssI72
(dp2925
g24
I74118
sg2269
g10
(g14
S'\r1\x89\xdc\xb9\xce\xcc?'
p2926
tp2927
Rp2928
sg4
(dp2929
g2274
I351
sg2275
I72
sg2276
Nsg2277
I180436
sg2278
I7200100
sg2269
g2928
sg2279
(dp2930
g2281
F942.0
sg2282
F26.0
sg2283
F0.1380494511550645
sg2557
F9.583385467529297
sg2558
F0.09335040644976733
ssg2285
I1
sg2286
(lp2931
g2560
ag2561
asg24
I74118
sg2291
g2562
sg2293
S'dend[15]'
p2932
sg25
I73500
ssg2293
S'dend[15]'
p2933
ssI73
(dp2934
g24
I74118
sg2269
g10
(g14
S'9B\xe6\xd1\x0eq\xc5?'
p2935
tp2936
Rp2937
sg4
(dp2938
g2274
I351
sg2275
I73
sg2276
Nsg2277
I180436
sg2278
I7300100
sg2269
g2937
sg2279
(dp2939
g2281
F657.0
sg2282
F20.0
sg2283
F0.09918961103419323
sg2557
F8.031193733215332
sg2558
F0.3653780619823137
ssg2285
I1
sg2286
(lp2940
g2560
ag2561
asg24
I74118
sg2291
g2562
sg2293
S'dend[15]'
p2941
sg25
I73500
ssg2293
S'dend[15]'
p2942
ssI74
(dp2943
g24
I74118
sg2269
g10
(g14
S'\x84\xcd\x1f\x0ex1\xbd?'
p2944
tp2945
Rp2946
sg4
(dp2947
g2274
I351
sg2275
I74
sg2276
Nsg2277
I180436
sg2278
I7400100
sg2269
g2946
sg2279
(dp2948
g2281
F637.0
sg2282
F19.0
sg2283
F0.09658370297919702
sg2557
F7.92710542678833
sg2558
F0.2851890701225197
ssg2285
I1
sg2286
(lp2949
g2560
ag2561
asg24
I74118
sg2291
g2562
sg2293
S'dend[15]'
p2950
sg25
I73500
ssg2293
S'dend[15]'
p2951
ssI75
(dp2952
g24
I74118
sg2269
g10
(g14
S'\x10\xa0@b\t\x00\xc2?'
p2953
tp2954
Rp2955
sg4
(dp2956
g2274
I351
sg2275
I75
sg2276
Nsg2277
I180436
sg2278
I7500100
sg2269
g2955
sg2279
(dp2957
g2281
F321.0
sg2282
F12.0
sg2283
F0.05350402114336896
sg2557
F6.206359386444092
sg2558
F0.09449293139870031
ssg2285
I1
sg2286
(lp2958
g2560
ag2561
asg24
I74118
sg2291
g2562
sg2293
S'dend[15]'
p2959
sg25
I73500
ssg2293
S'dend[15]'
p2960
ssI76
(dp2961
g24
I74118
sg2269
F1e-07
sg4
(dp2962
g2274
I0
sg2275
I76
sg2276
Nsg2277
I180436
sg2278
I7600100
sg2269
F1e-07
sg2279
(dp2963
g2281
F1041.0
sg2282
F28.0
sg2283
F0.15153523967558533
sg2557
F10.122053146362305
sg2558
F0.15331786414322857
ssg2285
I1
sg2286
(lp2964
g2560
ag2561
asg24
I74118
sg2291
g2562
sg2293
S'soma[0]'
p2965
sg25
I73500
ssg2293
S'soma[0]'
p2966
ssI77
(dp2967
g24
I74118
sg2269
F1e-07
sg4
(dp2968
g2274
I0
sg2275
I77
sg2276
Nsg2277
I180436
sg2278
I7700100
sg2269
F1e-07
sg2279
(dp2969
g2281
F909.0
sg2282
F26.0
sg2283
F0.13353983612104492
sg2557
F9.4032564163208
sg2558
F0.1028855118186748
ssg2285
I1
sg2286
(lp2970
g2560
ag2561
asg24
I74118
sg2291
g2562
sg2293
S'soma[0]'
p2971
sg25
I73500
ssg2293
S'soma[0]'
p2972
ssI78
(dp2973
g24
I74118
sg2269
F1e-07
sg4
(dp2974
g2274
I0
sg2275
I78
sg2276
Nsg2277
I180436
sg2278
I7800100
sg2269
F1e-07
sg2279
(dp2975
g2281
F690.0
sg2282
F21.0
sg2283
F0.10371058366208183
sg2557
F8.211776733398438
sg2558
F0.09619249746613232
ssg2285
I1
sg2286
(lp2976
g2560
ag2561
asg24
I74118
sg2291
g2562
sg2293
S'soma[0]'
p2977
sg25
I73500
ssg2293
S'soma[0]'
p2978
ssI79
(dp2979
g24
I74118
sg2269
g10
(g14
S'[Bk\xd0\xfdq\xec?'
p2980
tp2981
Rp2982
sg4
(dp2983
g2274
I343
sg2275
I79
sg2276
Nsg2277
I180436
sg2278
I7900100
sg2269
g2982
sg2279
(dp2984
g2281
F674.0
sg2282
F20.0
sg2283
F0.10160518627097762
sg2557
F8.127680778503418
sg2558
F0.08472545256505971
ssg2285
I1
sg2286
(lp2985
g2560
ag2561
asg24
I74118
sg2291
g2562
sg2293
S'dend[7]'
p2986
sg25
I73500
ssg2293
S'dend[7]'
p2987
ssI80
(dp2988
g24
I74118
sg2269
g10
(g14
S'\x1d9c\xbc\xc5U\xd9?'
p2989
tp2990
Rp2991
sg4
(dp2992
g2274
I344
sg2275
I80
sg2276
Nsg2277
I180436
sg2278
I8000100
sg2269
g2991
sg2279
(dp2993
g2281
F540.0
sg2282
F17.0
sg2283
F0.08334107681857558
sg2557
F7.39815092086792
sg2558
F0.27566383078230006
ssg2285
I1
sg2286
(lp2994
g2560
ag2561
asg24
I74118
sg2291
g2562
sg2293
S'dend[8]'
p2995
sg25
I73500
ssg2293
S'dend[8]'
p2996
ssI81
(dp2997
g24
I74118
sg2269
F1e-07
sg4
(dp2998
g2274
I0
sg2275
I81
sg2276
Nsg2277
I180436
sg2278
I8100100
sg2269
F1e-07
sg2279
(dp2999
g2281
F843.0
sg2282
F24.0
sg2283
F0.12451267657112723
sg2557
F9.042681694030762
sg2558
F0.6043281098557173
ssg2285
I1
sg2286
(lp3000
g2560
ag2561
asg24
I74118
sg2291
g2562
sg2293
S'soma[0]'
p3001
sg25
I73500
ssg2293
S'soma[0]'
p3002
ssI82
(dp3003
g24
I74118
sg2269
g10
(g14
S'J\x8b\x92\xef\xcb\xc8\xc6?'
p3004
tp3005
Rp3006
sg4
(dp3007
g2274
I340
sg2275
I82
sg2276
Nsg2277
I180436
sg2278
I8200100
sg2269
g3006
sg2279
(dp3008
g2281
F620.0
sg2282
F19.0
sg2283
F0.09428994882706886
sg2557
F7.835485458374023
sg2558
F0.016855260921781794
ssg2285
I1
sg2286
(lp3009
g2560
ag2561
asg24
I74118
sg2291
g2562
sg2293
S'dend[4]'
p3010
sg25
I73500
ssg2293
S'dend[4]'
p3011
ssI83
(dp3012
g24
I74118
sg2269
g10
(g14
S'."\x8a\x983/\xe2?'
p3013
tp3014
Rp3015
sg4
(dp3016
g2274
I350
sg2275
I83
sg2276
Nsg2277
I180436
sg2278
I8300100
sg2269
g3015
sg2279
(dp3017
g2281
F590.0
sg2282
F18.0
sg2283
F0.09017188984049243
sg2557
F7.670996189117432
sg2558
F0.07107236934516692
ssg2285
I1
sg2286
(lp3018
g2560
ag2561
asg24
I74118
sg2291
g2562
sg2293
S'dend[14]'
p3019
sg25
I73500
ssg2293
S'dend[14]'
p3020
ssI84
(dp3021
g24
I74118
sg2269
g10
(g14
S'\x8c"j\t/\xee\xe3?'
p3022
tp3023
Rp3024
sg4
(dp3025
g2274
I339
sg2275
I84
sg2276
Nsg2277
I180436
sg2278
I8400100
sg2269
g3024
sg2279
(dp3026
g2281
F846.0
sg2282
F24.0
sg2283
F0.12495953065342236
sg2557
F9.060530662536621
sg2558
F0.025419470144177187
ssg2285
I1
sg2286
(lp3027
g2560
ag2561
asg24
I74118
sg2291
g2562
sg2293
S'dend[3]'
p3028
sg25
I73500
ssg2293
S'dend[3]'
p3029
ssI85
(dp3030
g24
I74118
sg2269
g10
(g14
S'\x9a\x7f4\xce\xd45\xe3?'
p3031
tp3032
Rp3033
sg4
(dp3034
g2274
I339
sg2275
I85
sg2276
Nsg2277
I180436
sg2278
I8500100
sg2269
g3033
sg2279
(dp3035
g2281
F699.0
sg2282
F21.0
sg2283
F0.10499650445541728
sg2557
F8.263140678405762
sg2558
F0.036370235085581605
ssg2285
I1
sg2286
(lp3036
g2560
ag2561
asg24
I74118
sg2291
g2562
sg2293
S'dend[3]'
p3037
sg25
I73500
ssg2293
S'dend[3]'
p3038
ssI86
(dp3039
g24
I74319
sg2269
g10
(g14
S'\x15I\xac\xb1\x1d\xd9\xc2?'
p3040
tp3041
Rp3042
sg4
(dp3043
g2274
I352
sg2275
I86
sg2276
Nsg2277
I180436
sg2278
I8600100
sg2269
g3042
sg2279
(dp3044
g2281
F274.0
sg2282
F1204.0
sg2283
F0.029127878126231323
sg2284
F1.8557466268539429
ssg2285
I133
sg2286
(lp3045
g2288
ag2289
ag2290
asg24
I74319
sg2291
g2292
sg2293
S'dend[16]'
p3046
sg25
I73500
ssg2293
S'dend[16]'
p3047
ssI87
(dp3048
g24
I74319
sg2269
g10
(g14
S' \xd2\xae\x16\xcfE\xe6?'
p3049
tp3050
Rp3051
sg4
(dp3052
g2274
I350
sg2275
I87
sg2276
Nsg2277
I180436
sg2278
I8700100
sg2269
g3051
sg2279
(dp3053
g2281
F43.0
sg2282
F297.0
sg2283
F0.006275133260584377
sg2284
F1.6590193510055542
ssg2285
I133
sg2286
(lp3054
g2288
ag2289
ag2290
asg24
I74319
sg2291
g2292
sg2293
S'dend[14]'
p3055
sg25
I73500
ssg2293
S'dend[14]'
p3056
ssI88
(dp3057
g24
I74319
sg2269
g10
(g14
S'i\x1d\xa0\xb1\x11\x85\xee?'
p3058
tp3059
Rp3060
sg4
(dp3061
g2274
I350
sg2275
I88
sg2276
Nsg2277
I180436
sg2278
I8800100
sg2269
g3060
sg2279
(dp3062
g2281
F36.0
sg2282
F268.0
sg2283
F0.005566859238574526
sg2284
F1.6529221534729004
ssg2285
I133
sg2286
(lp3063
g2288
ag2289
ag2290
asg24
I74319
sg2291
g2292
sg2293
S'dend[14]'
p3064
sg25
I73500
ssg2293
S'dend[14]'
p3065
ssI89
(dp3066
g24
I74319
sg2269
g10
(g14
S'\xd2\x8a\xda\xd4\xe5#\xe0?'
p3067
tp3068
Rp3069
sg4
(dp3070
g2274
I350
sg2275
I89
sg2276
Nsg2277
I180436
sg2278
I8900100
sg2269
g3069
sg2279
(dp3071
g2281
F51.0
sg2282
F329.0
sg2283
F0.007087879954911043
sg2284
F1.666015863418579
ssg2285
I133
sg2286
(lp3072
g2288
ag2289
ag2290
asg24
I74319
sg2291
g2292
sg2293
S'dend[14]'
p3073
sg25
I73500
ssg2293
S'dend[14]'
p3074
ssI90
(dp3075
g24
I74319
sg2269
g10
(g14
S'\xbd\x07H\xfe\x1a\xb4\xb3?'
p3076
tp3077
Rp3078
sg4
(dp3079
g2274
I352
sg2275
I90
sg2276
Nsg2277
I180436
sg2278
I9000100
sg2269
g3078
sg2279
(dp3080
g2281
F3.0
sg2282
F139.0
sg2283
F0.002295737235316366
sg2284
F1.624762773513794
ssg2285
I133
sg2286
(lp3081
g2288
ag2289
ag2290
asg24
I74319
sg2291
g2292
sg2293
S'dend[16]'
p3082
sg25
I73500
ssg2293
S'dend[16]'
p3083
ssI91
(dp3084
g24
I74319
sg2269
g10
(g14
S'\x9a\x8bLg\xd3\x86\xe7?'
p3085
tp3086
Rp3087
sg4
(dp3088
g2274
I343
sg2275
I91
sg2276
Nsg2277
I180436
sg2278
I9100100
sg2269
g3087
sg2279
(dp3089
g2281
F148.0
sg2282
F708.0
sg2283
F0.016627648396965827
sg2284
F1.748138666152954
ssg2285
I133
sg2286
(lp3090
g2288
ag2289
ag2290
asg24
I74319
sg2291
g2292
sg2293
S'dend[7]'
p3091
sg25
I73500
ssg2293
S'dend[7]'
p3092
ssI92
(dp3093
g24
I74319
sg2269
g10
(g14
S'9&D\xeb\xfc8\xd0?'
p3094
tp3095
Rp3096
sg4
(dp3097
g2274
I353
sg2275
I92
sg2276
Nsg2277
I180436
sg2278
I9200100
sg2269
g3096
sg2279
(dp3098
g2281
F95.0
sg2282
F499.0
sg2283
F0.011376778990109023
sg2284
F1.7029366493225098
ssg2285
I133
sg2286
(lp3099
g2288
ag2289
ag2290
asg24
I74319
sg2291
g2292
sg2293
S'dend[17]'
p3100
sg25
I73500
ssg2293
S'dend[17]'
p3101
ssI93
(dp3102
g24
I74327
sg2269
g10
(g14
S'L\xbf\xf6\x0ev2\xc3?'
p3103
tp3104
Rp3105
sg4
(dp3106
g2274
I353
sg2275
I93
sg2276
Nsg2277
I180436
sg2278
I9300100
sg2269
g3105
sg2279
(dp3107
g2281
F324.0
sg2282
F1403.0
sg2283
F0.03414808651676735
sg2284
F1.8989628553390503
ssg2285
I133
sg2286
(lp3108
g2288
ag2289
ag2290
asg24
I74327
sg2291
g2292
sg2293
S'dend[17]'
p3109
sg25
I73500
ssg2293
S'dend[17]'
p3110
ssI94
(dp3111
g24
I74327
sg2269
g10
(g14
S'\xe5\x90\x07\xb6\xd5\xc2\xcf?'
p3112
tp3113
Rp3114
sg4
(dp3115
g2274
I338
sg2275
I94
sg2276
Nsg2277
I180436
sg2278
I9400100
sg2269
g3114
sg2279
(dp3116
g2281
F128.0
sg2282
F632.0
sg2283
F0.014717559881597116
sg2284
F1.7316957712173462
ssg2285
I133
sg2286
(lp3117
g2288
ag2289
ag2290
asg24
I74327
sg2291
g2292
sg2293
S'dend[2]'
p3118
sg25
I73500
ssg2293
S'dend[2]'
p3119
ssI95
(dp3120
g24
I74327
sg2269
g10
(g14
S'\xc1\xf5\x9d\x04\x9b\xdb\xd1?'
p3121
tp3122
Rp3123
sg4
(dp3124
g2274
I338
sg2275
I95
sg2276
Nsg2277
I180436
sg2278
I9500100
sg2269
g3123
sg2279
(dp3125
g2281
F210.0
sg2282
F954.0
sg2283
F0.022836193595345076
sg2284
F1.8015848398208618
ssg2285
I133
sg2286
(lp3126
g2288
ag2289
ag2290
asg24
I74327
sg2291
g2292
sg2293
S'dend[2]'
p3127
sg25
I73500
ssg2293
S'dend[2]'
p3128
ssI96
(dp3129
g24
I74327
sg2269
g10
(g14
S'_\xd7\xb1\xb2\xf3O\xd5?'
p3130
tp3131
Rp3132
sg4
(dp3133
g2274
I338
sg2275
I96
sg2276
Nsg2277
I180436
sg2278
I9600100
sg2269
g3132
sg2279
(dp3134
g2281
F195.0
sg2282
F892.0
sg2283
F0.02128634739229215
sg2284
F1.7882429361343384
ssg2285
I133
sg2286
(lp3135
g2288
ag2289
ag2290
asg24
I74327
sg2291
g2292
sg2293
S'dend[2]'
p3136
sg25
I73500
ssg2293
S'dend[2]'
p3137
ssI97
(dp3138
g24
I74327
sg2269
g10
(g14
S'\x08\xe4"?U\x96\xd6?'
p3139
tp3140
Rp3141
sg4
(dp3142
g2274
I338
sg2275
I97
sg2276
Nsg2277
I180436
sg2278
I9700100
sg2269
g3141
sg2279
(dp3143
g2281
F83.0
sg2282
F453.0
sg2283
F0.0102140980143864
sg2284
F1.6929278373718262
ssg2285
I133
sg2286
(lp3144
g2288
ag2289
ag2290
asg24
I74327
sg2291
g2292
sg2293
S'dend[2]'
p3145
sg25
I73500
ssg2293
S'dend[2]'
p3146
ssI98
(dp3147
g24
I74327
sg2269
g10
(g14
S'rs\xce\xe4F\xc6\xd7?'
p3148
tp3149
Rp3150
sg4
(dp3151
g2274
I338
sg2275
I98
sg2276
Nsg2277
I180436
sg2278
I9800100
sg2269
g3150
sg2279
(dp3152
g2281
F102.0
sg2282
F527.0
sg2283
F0.012087026987057613
sg2284
F1.7090508937835693
ssg2285
I133
sg2286
(lp3153
g2288
ag2289
ag2290
asg24
I74327
sg2291
g2292
sg2293
S'dend[2]'
p3154
sg25
I73500
ssg2293
S'dend[2]'
p3155
ssI99
(dp3156
g24
I74486
sg2269
g10
(g14
S'U\x04\x81\x01\x9e\xb5\xeb?'
p3157
tp3158
Rp3159
sg4
(dp3160
g2274
I338
sg2275
I99
sg2276
Nsg2277
I180436
sg2278
I9900100
sg2269
g3159
sg2279
(dp3161
g2281
F187.0
sg2282
F862.0
sg2283
F0.020519011858361517
sg2284
F1.78163743019104
ssg2285
I133
sg2286
(lp3162
g2288
ag2289
ag2290
asg24
I74486
sg2291
g2292
sg2293
S'dend[2]'
p3163
sg25
I73500
ssg2293
S'dend[2]'
p3164
ssI100
(dp3165
g24
I74486
sg2269
F1e-07
sg4
(dp3166
g2274
I0
sg2275
I100
sg2276
Nsg2277
I180436
sg2278
I10000100
sg2269
F1e-07
sg2279
(dp3167
g2281
F125.0
sg2282
F617.0
sg2283
F0.01435508849005094
sg2284
F1.728575348854065
ssg2285
I133
sg2286
(lp3168
g2288
ag2289
ag2290
asg24
I74486
sg2291
g2292
sg2293
S'soma[0]'
p3169
sg25
I73500
ssg2293
S'soma[0]'
p3170
ssI101
(dp3171
g24
I74486
sg2269
F1e-07
sg4
(dp3172
g2274
I0
sg2275
I101
sg2276
Nsg2277
I180436
sg2278
I10100100
sg2269
F1e-07
sg2279
(dp3173
g2281
F23.0
sg2282
F219.0
sg2283
F0.0043255324658639585
sg2284
F1.6422362327575684
ssg2285
I133
sg2286
(lp3174
g2288
ag2289
ag2290
asg24
I74486
sg2291
g2292
sg2293
S'soma[0]'
p3175
sg25
I73500
ssg2293
S'soma[0]'
p3176
ssI102
(dp3177
g24
I74486
sg2269
F1e-07
sg4
(dp3178
g2274
I0
sg2275
I102
sg2276
Nsg2277
I180436
sg2278
I10200100
sg2269
F1e-07
sg2279
(dp3179
g2281
F282.0
sg2282
F1237.0
sg2283
F0.029973996096980416
sg2284
F1.8630303144454956
ssg2285
I133
sg2286
(lp3180
g2288
ag2289
ag2290
asg24
I74486
sg2291
g2292
sg2293
S'soma[0]'
p3181
sg25
I73500
ssg2293
S'soma[0]'
p3182
ssI103
(dp3183
g24
I74486
sg2269
g10
(g14
S'/\x9f\x9a\xa2\x98\xf6\xd3?'
p3184
tp3185
Rp3186
sg4
(dp3187
g2274
I340
sg2275
I103
sg2276
Nsg2277
I180436
sg2278
I10300100
sg2269
g3186
sg2279
(dp3188
g2281
F155.0
sg2282
F737.0
sg2283
F0.01737847420429603
sg2284
F1.7546021938323975
ssg2285
I133
sg2286
(lp3189
g2288
ag2289
ag2290
asg24
I74486
sg2291
g2292
sg2293
S'dend[4]'
p3190
sg25
I73500
ssg2293
S'dend[4]'
p3191
ssI104
(dp3192
g24
I74486
sg2269
g10
(g14
S'\xfb\xe7\xd5d\x9at\xd6?'
p3193
tp3194
Rp3195
sg4
(dp3196
g2274
I340
sg2275
I104
sg2276
Nsg2277
I180436
sg2278
I10400100
sg2269
g3195
sg2279
(dp3197
g2281
F0.0
sg2282
F11.0
sg2283
F0.0
sg2284
F1.5970680713653564
ssg2285
I133
sg2286
(lp3198
g2288
ag2289
ag2290
asg24
I74486
sg2291
g2292
sg2293
S'dend[4]'
p3199
sg25
I73500
ssg2293
S'dend[4]'
p3200
ssI105
(dp3201
g24
I74486
sg2269
g10
(g14
S'\xf9\xbe\xb5v\x0b\xca\xd8?'
p3202
tp3203
Rp3204
sg4
(dp3205
g2274
I340
sg2275
I105
sg2276
Nsg2277
I180436
sg2278
I10500100
sg2269
g3204
sg2279
(dp3206
g2281
F137.0
sg2282
F667.0
sg2283
F0.015618463608620336
sg2284
F1.7394511699676514
ssg2285
I133
sg2286
(lp3207
g2288
ag2289
ag2290
asg24
I74486
sg2291
g2292
sg2293
S'dend[4]'
p3208
sg25
I73500
ssg2293
S'dend[4]'
p3209
ssI106
(dp3210
g24
I74486
sg2269
g10
(g14
S'\xe0f\xd4\xbdI\xdb\xdb?'
p3211
tp3212
Rp3213
sg4
(dp3214
g2274
I340
sg2275
I106
sg2276
Nsg2277
I180436
sg2278
I10600100
sg2269
g3213
sg2279
(dp3215
g2281
F311.0
sg2282
F1351.0
sg2283
F0.03284694298062623
sg2284
F1.8877620697021484
ssg2285
I133
sg2286
(lp3216
g2288
ag2289
ag2290
asg24
I74486
sg2291
g2292
sg2293
S'dend[4]'
p3217
sg25
I73500
ssg2293
S'dend[4]'
p3218
ssI107
(dp3219
g24
I74486
sg2269
g10
(g14
S'\xfd\x84\xd8u\xc7\xdc\xde?'
p3220
tp3221
Rp3222
sg4
(dp3223
g2274
I340
sg2275
I107
sg2276
Nsg2277
I180436
sg2278
I10700100
sg2269
g3222
sg2279
(dp3224
g2281
F181.0
sg2282
F839.0
sg2283
F0.019942433317277776
sg2284
F1.7766739130020142
ssg2285
I133
sg2286
(lp3225
g2288
ag2289
ag2290
asg24
I74486
sg2291
g2292
sg2293
S'dend[4]'
p3226
sg25
I73500
ssg2293
S'dend[4]'
p3227
ssI108
(dp3228
g24
I74486
sg2269
g10
(g14
S't\xbb\xee\xda:\xcc\x98?'
p3229
tp3230
Rp3231
sg4
(dp3232
g2274
I356
sg2275
I108
sg2276
Nsg2277
I180436
sg2278
I10800100
sg2269
g3231
sg2279
(dp3233
g2281
F53.0
sg2282
F335.0
sg2283
F0.0072525513979755625
sg2284
F1.6674333810806274
ssg2285
I133
sg2286
(lp3234
g2288
ag2289
ag2290
asg24
I74486
sg2291
g2292
sg2293
S'dend[20]'
p3235
sg25
I73500
ssg2293
S'dend[20]'
p3236
ssI109
(dp3237
g24
I74486
sg2269
g10
(g14
S'\x11;\xb8\x05b\xd6\xb0?'
p3238
tp3239
Rp3240
sg4
(dp3241
g2274
I356
sg2275
I109
sg2276
Nsg2277
I180436
sg2278
I10900100
sg2269
g3240
sg2279
(dp3242
g2281
F284.0
sg2282
F1245.0
sg2283
F0.030173346144822057
sg2284
F1.8647464513778687
ssg2285
I133
sg2286
(lp3243
g2288
ag2289
ag2290
asg24
I74486
sg2291
g2292
sg2293
S'dend[20]'
p3244
sg25
I73500
ssg2293
S'dend[20]'
p3245
ssI110
(dp3246
g24
I76469
sg2269
g10
(g14
S'xh\xbf\xc6\x87\x90\xed?'
p3247
tp3248
Rp3249
sg4
(dp3250
g2274
I348
sg2275
I110
sg2276
Nsg2277
I180436
sg2278
I11000100
sg2269
g3249
sg2279
(dp3251
g2281
F839.0
sg2282
F24.0
sg2283
F0.12400031587738969
sg2557
F9.022216796875
sg2558
F0.024787728863081004
ssg2285
I1
sg2286
(lp3252
g2560
ag2561
asg24
I76469
sg2291
g2562
sg2293
S'dend[12]'
p3253
sg25
I73500
ssg2293
S'dend[12]'
p3254
ssI111
(dp3255
g24
I76469
sg2269
g10
(g14
S'\xd5^8\x10\x84\x08\xed?'
p3256
tp3257
Rp3258
sg4
(dp3259
g2274
I348
sg2275
I111
sg2276
Nsg2277
I180436
sg2278
I11100100
sg2269
g3258
sg2279
(dp3260
g2281
F599.0
sg2282
F19.0
sg2283
F0.0913766092039539
sg2557
F7.719116687774658
sg2558
F0.07278783026621928
ssg2285
I1
sg2286
(lp3261
g2560
ag2561
asg24
I76469
sg2291
g2562
sg2293
S'dend[12]'
p3262
sg25
I73500
ssg2293
S'dend[12]'
p3263
ssI112
(dp3264
g24
I76469
sg2269
g10
(g14
S'\xaeA\xc9\x85([\xc6?'
p3265
tp3266
Rp3267
sg4
(dp3268
g2274
I338
sg2275
I112
sg2276
Nsg2277
I180436
sg2278
I11200100
sg2269
g3267
sg2279
(dp3269
g2281
F624.0
sg2282
F19.0
sg2283
F0.09479150749573143
sg2557
F7.8555192947387695
sg2558
F0.03555736537824486
ssg2285
I1
sg2286
(lp3270
g2560
ag2561
asg24
I76469
sg2291
g2562
sg2293
S'dend[2]'
p3271
sg25
I73500
ssg2293
S'dend[2]'
p3272
ssI113
(dp3273
g24
I76469
sg2269
g10
(g14
S'\xbe\tq\xbf\xabz\xed?'
p3274
tp3275
Rp3276
sg4
(dp3277
g2274
I348
sg2275
I113
sg2276
Nsg2277
I180436
sg2278
I11300100
sg2269
g3276
sg2279
(dp3278
g2281
F559.0
sg2282
F18.0
sg2283
F0.08588226742234818
sg2557
F7.499654769897461
sg2558
F0.3246796885271646
ssg2285
I1
sg2286
(lp3279
g2560
ag2561
asg24
I76469
sg2291
g2562
sg2293
S'dend[12]'
p3280
sg25
I73500
ssg2293
S'dend[12]'
p3281
ssI114
(dp3282
g24
I76469
sg2269
g10
(g14
S'\x8e\x97>no,\xde?'
p3283
tp3284
Rp3285
sg4
(dp3286
g2274
I339
sg2275
I114
sg2276
Nsg2277
I180436
sg2278
I11400100
sg2269
g3285
sg2279
(dp3287
g2281
F507.0
sg2282
F17.0
sg2283
F0.0788730031784738
sg2557
F7.219681262969971
sg2558
F0.08007896390598965
ssg2285
I1
sg2286
(lp3288
g2560
ag2561
asg24
I76469
sg2291
g2562
sg2293
S'dend[3]'
p3289
sg25
I73500
ssg2293
S'dend[3]'
p3290
ssI115
(dp3291
g24
I76469
sg2269
g10
(g14
S"\x15'U\x95\x19\x1f\xec?"
p3292
tp3293
Rp3294
sg4
(dp3295
g2274
I348
sg2275
I115
sg2276
Nsg2277
I180436
sg2278
I11500100
sg2269
g3294
sg2279
(dp3296
g2281
F860.0
sg2282
F24.0
sg2283
F0.12687413435674696
sg2557
F9.137005805969238
sg2558
F0.20012868200333336
ssg2285
I1
sg2286
(lp3297
g2560
ag2561
asg24
I76469
sg2291
g2562
sg2293
S'dend[12]'
p3298
sg25
I73500
ssg2293
S'dend[12]'
p3299
ssI116
(dp3300
g24
I76469
sg2269
g10
(g14
S'@_@\xf7\x05s\xe2?'
p3301
tp3302
Rp3303
sg4
(dp3304
g2274
I349
sg2275
I116
sg2276
Nsg2277
I180436
sg2278
I11600100
sg2269
g3303
sg2279
(dp3305
g2281
F842.0
sg2282
F24.0
sg2283
F0.12434988228791076
sg2557
F9.036179542541504
sg2558
F0.2595965071786771
ssg2285
I1
sg2286
(lp3306
g2560
ag2561
asg24
I76469
sg2291
g2562
sg2293
S'dend[13]'
p3307
sg25
I73500
ssg2293
S'dend[13]'
p3308
ssI117
(dp3309
g24
I76561
sg2269
g10
(g14
S'l\xc0q\xd8"`\xea?'
p3310
tp3311
Rp3312
sg4
(dp3313
g2274
I348
sg2275
I117
sg2276
Nsg2277
I180436
sg2278
I11700100
sg2269
g3312
sg2279
(dp3314
g2281
F490.0
sg2282
F16.0
sg2283
F0.07657768964575329
sg2557
F7.1279988288879395
sg2558
F2.203476524848391
ssg2285
I1
sg2286
(lp3315
g2560
ag2561
asg24
I76561
sg2291
g2562
sg2293
S'dend[12]'
p3316
sg25
I73500
ssg2293
S'dend[12]'
p3317
ssI118
(dp3318
g24
I76561
sg2269
g10
(g14
S'\xf8:\x8cC\xc2,\xed?'
p3319
tp3320
Rp3321
sg4
(dp3322
g2274
I338
sg2275
I118
sg2276
Nsg2277
I180436
sg2278
I11800100
sg2269
g3321
sg2279
(dp3323
g2281
F488.0
sg2282
F16.0
sg2283
F0.07621804092427678
sg2557
F7.113633155822754
sg2558
F0.04387863363857377
ssg2285
I1
sg2286
(lp3324
g2560
ag2561
asg24
I76561
sg2291
g2562
sg2293
S'dend[2]'
p3325
sg25
I73500
ssg2293
S'dend[2]'
p3326
ssI119
(dp3327
g24
I76561
sg2269
g10
(g14
S'1\xde\x1a\xf4|\xd2\xed?'
p3328
tp3329
Rp3330
sg4
(dp3331
g2274
I338
sg2275
I119
sg2276
Nsg2277
I180436
sg2278
I11900100
sg2269
g3330
sg2279
(dp3332
g2281
F837.0
sg2282
F24.0
sg2283
F0.12378884619187742
sg2557
F9.01377010345459
sg2558
F0.05226525021421848
ssg2285
I1
sg2286
(lp3333
g2560
ag2561
asg24
I76561
sg2291
g2562
sg2293
S'dend[2]'
p3334
sg25
I73500
ssg2293
S'dend[2]'
p3335
ssI120
(dp3336
g24
I76561
sg2269
g10
(g14
S"\xd4\xe0'\xb6\xedy\xee?"
p3337
tp3338
Rp3339
sg4
(dp3340
g2274
I338
sg2275
I120
sg2276
Nsg2277
I180436
sg2278
I12000100
sg2269
g3339
sg2279
(dp3341
g2281
F315.0
sg2282
F12.0
sg2283
F0.05270548254452549
sg2557
F6.174463272094727
sg2558
F1.270125673783073
ssg2285
I1
sg2286
(lp3342
g2560
ag2561
asg24
I76561
sg2291
g2562
sg2293
S'dend[2]'
p3343
sg25
I73500
ssg2293
S'dend[2]'
p3344
ssI121
(dp3345
g24
I76561
sg2269
F1e-07
sg4
(dp3346
g2274
I0
sg2275
I121
sg2276
Nsg2277
I180436
sg2278
I12100100
sg2269
F1e-07
sg2279
(dp3347
g2281
F942.0
sg2282
F26.0
sg2283
F0.13796837599082554
sg2557
F9.580146789550781
sg2558
F0.1107729721654149
ssg2285
I1
sg2286
(lp3348
g2560
ag2561
asg24
I76561
sg2291
g2562
sg2293
S'soma[0]'
p3349
sg25
I73500
ssg2293
S'soma[0]'
p3350
ssI122
(dp3351
g24
I76561
sg2269
F1e-07
sg4
(dp3352
g2274
I0
sg2275
I122
sg2276
Nsg2277
I180436
sg2278
I12200100
sg2269
F1e-07
sg2279
(dp3353
g2281
F506.0
sg2282
F17.0
sg2283
F0.07870758257004916
sg2557
F7.21307373046875
sg2558
F0.2679831064338684
ssg2285
I1
sg2286
(lp3354
g2560
ag2561
asg24
I76561
sg2291
g2562
sg2293
S'soma[0]'
p3355
sg25
I73500
ssg2293
S'soma[0]'
p3356
ssI123
(dp3357
g24
I76561
sg2269
F1e-07
sg4
(dp3358
g2274
I0
sg2275
I123
sg2276
Nsg2277
I180436
sg2278
I12300100
sg2269
F1e-07
sg2279
(dp3359
g2281
F969.0
sg2282
F27.0
sg2283
F0.14169552288469736
sg2557
F9.729022026062012
sg2558
F0.06215463244545458
ssg2285
I1
sg2286
(lp3360
g2560
ag2561
asg24
I76561
sg2291
g2562
sg2293
S'soma[0]'
p3361
sg25
I73500
ssg2293
S'soma[0]'
p3362
ssI124
(dp3363
g24
I76561
sg2269
F1e-07
sg4
(dp3364
g2274
I0
sg2275
I124
sg2276
Nsg2277
I180436
sg2278
I12400100
sg2269
F1e-07
sg2279
(dp3365
g2281
F917.0
sg2282
F26.0
sg2283
F0.134645986216537
sg2557
F9.447439193725586
sg2558
F0.02591426049081815
ssg2285
I1
sg2286
(lp3366
g2560
ag2561
asg24
I76561
sg2291
g2562
sg2293
S'soma[0]'
p3367
sg25
I73500
ssg2293
S'soma[0]'
p3368
ssI125
(dp3369
g24
I76561
sg2269
F1e-07
sg4
(dp3370
g2274
I0
sg2275
I125
sg2276
Nsg2277
I180436
sg2278
I12500100
sg2269
F1e-07
sg2279
(dp3371
g2281
F346.0
sg2282
F13.0
sg2283
F0.05697869990004125
sg2557
F6.345149993896484
sg2558
F0.059812501370586496
ssg2285
I1
sg2286
(lp3372
g2560
ag2561
asg24
I76561
sg2291
g2562
sg2293
S'soma[0]'
p3373
sg25
I73500
ssg2293
S'soma[0]'
p3374
ssI126
(dp3375
g24
I76561
sg2269
F1e-07
sg4
(dp3376
g2274
I0
sg2275
I126
sg2276
Nsg2277
I180436
sg2278
I12600100
sg2269
F1e-07
sg2279
(dp3377
g2281
F1091.0
sg2282
F30.0
sg2283
F0.15832050236967285
sg2557
F10.393078804016113
sg2558
F0.03827613753073215
ssg2285
I1
sg2286
(lp3378
g2560
ag2561
asg24
I76561
sg2291
g2562
sg2293
S'soma[0]'
p3379
sg25
I73500
ssg2293
S'soma[0]'
p3380
ssI127
(dp3381
g24
I76561
sg2269
g10
(g14
S'HW\xff\x0c?\xc5\xe1?'
p3382
tp3383
Rp3384
sg4
(dp3385
g2274
I338
sg2275
I127
sg2276
Nsg2277
I180436
sg2278
I12700100
sg2269
g3384
sg2279
(dp3386
g2281
F777.0
sg2282
F23.0
sg2283
F0.11562033083970813
sg2557
F8.687491416931152
sg2558
F0.0998810744063537
ssg2285
I1
sg2286
(lp3387
g2560
ag2561
asg24
I76561
sg2291
g2562
sg2293
S'dend[2]'
p3388
sg25
I73500
ssg2293
S'dend[2]'
p3389
ssI128
(dp3390
g24
I76561
sg2269
g10
(g14
S'\x1d\xe9\xee\xa7c!\xe2?'
p3391
tp3392
Rp3393
sg4
(dp3394
g2274
I338
sg2275
I128
sg2276
Nsg2277
I180436
sg2278
I12800100
sg2269
g3393
sg2279
(dp3395
g2281
F398.0
sg2282
F14.0
sg2283
F0.06406614151183115
sg2557
F6.628245830535889
sg2558
F0.05108703932808097
ssg2285
I1
sg2286
(lp3396
g2560
ag2561
asg24
I76561
sg2291
g2562
sg2293
S'dend[2]'
p3397
sg25
I73500
ssg2293
S'dend[2]'
p3398
ssI129
(dp3399
g24
I76561
sg2269
g10
(g14
S'\x86\x04\xc0kBK\xe2?'
p3400
tp3401
Rp3402
sg4
(dp3403
g2274
I338
sg2275
I129
sg2276
Nsg2277
I180436
sg2278
I12900100
sg2269
g3402
sg2279
(dp3404
g2281
F337.0
sg2282
F13.0
sg2283
F0.055803116331857985
sg2557
F6.298192977905273
sg2558
F0.42627761816036946
ssg2285
I1
sg2286
(lp3405
g2560
ag2561
asg24
I76561
sg2291
g2562
sg2293
S'dend[2]'
p3406
sg25
I73500
ssg2293
S'dend[2]'
p3407
ssI130
(dp3408
g24
I76561
sg2269
g10
(g14
S'{\xe9j\xaczv\xeb?'
p3409
tp3410
Rp3411
sg4
(dp3412
g2274
I351
sg2275
I130
sg2276
Nsg2277
I180436
sg2278
I13000100
sg2269
g3411
sg2279
(dp3413
g2281
F869.0
sg2282
F25.0
sg2283
F0.12808296366662797
sg2557
F9.185290336608887
sg2558
F0.1976661368648336
ssg2285
I1
sg2286
(lp3414
g2560
ag2561
asg24
I76561
sg2291
g2562
sg2293
S'dend[15]'
p3415
sg25
I73500
ssg2293
S'dend[15]'
p3416
ssI131
(dp3417
g24
I76561
sg2269
g10
(g14
S'}\x00\xac\xf3\xff\x00\xe5?'
p3418
tp3419
Rp3420
sg4
(dp3421
g2274
I350
sg2275
I131
sg2276
Nsg2277
I180436
sg2278
I13100100
sg2269
g3420
sg2279
(dp3422
g2281
F788.0
sg2282
F23.0
sg2283
F0.11709406545183701
sg2557
F8.746357917785645
sg2558
F0.14443274318452462
ssg2285
I1
sg2286
(lp3423
g2560
ag2561
asg24
I76561
sg2291
g2562
sg2293
S'dend[14]'
p3424
sg25
I73500
ssg2293
S'dend[14]'
p3425
ssI132
(dp3426
g24
I76822
sg2269
g10
(g14
S'<\x93\x89\xb0\xa2~\xd6?'
p3427
tp3428
Rp3429
sg4
(dp3430
g2274
I351
sg2275
I132
sg2276
Nsg2277
I180436
sg2278
I13200100
sg2269
g3429
sg2279
(dp3431
g2281
F308.0
sg2282
F1338.0
sg2283
F0.032508224200378424
sg2284
F1.8848462104797363
ssg2285
I133
sg2286
(lp3432
g2288
ag2289
ag2290
asg24
I76822
sg2291
g2292
sg2293
S'dend[15]'
p3433
sg25
I73500
ssg2293
S'dend[15]'
p3434
ssI133
(dp3435
g24
I76822
sg2269
g10
(g14
S'\xf9\xc8\x83\xb3&\x8b\xd4?'
p3436
tp3437
Rp3438
sg4
(dp3439
g2274
I351
sg2275
I133
sg2276
Nsg2277
I180436
sg2278
I13300100
sg2269
g3438
sg2279
(dp3440
g2281
F158.0
sg2282
F747.0
sg2283
F0.017630225140301
sg2284
F1.7567692995071411
ssg2285
I133
sg2286
(lp3441
g2288
ag2289
ag2290
asg24
I76822
sg2291
g2292
sg2293
S'dend[15]'
p3442
sg25
I73500
ssg2293
S'dend[15]'
p3443
ssI134
(dp3444
g24
I76822
sg2269
g10
(g14
S'\xc8\xa1f\xa5\xc2\xb9\xd2?'
p3445
tp3446
Rp3447
sg4
(dp3448
g2274
I351
sg2275
I134
sg2276
Nsg2277
I180436
sg2278
I13400100
sg2269
g3447
sg2279
(dp3449
g2281
F65.0
sg2282
F384.0
sg2283
F0.008486677154249792
sg2284
F1.678057312965393
ssg2285
I133
sg2286
(lp3450
g2288
ag2289
ag2290
asg24
I76822
sg2291
g2292
sg2293
S'dend[15]'
p3451
sg25
I73500
ssg2293
S'dend[15]'
p3452
ssI135
(dp3453
g24
I76822
sg2269
g10
(g14
S'\x9a+_\xb1+\xba\xee?'
p3454
tp3455
Rp3456
sg4
(dp3457
g2274
I348
sg2275
I135
sg2276
Nsg2277
I180436
sg2278
I13500100
sg2269
g3456
sg2279
(dp3458
g2281
F292.0
sg2282
F1275.0
sg2283
F0.030918076712206595
sg2284
F1.8711574077606201
ssg2285
I133
sg2286
(lp3459
g2288
ag2289
ag2290
asg24
I76822
sg2291
g2292
sg2293
S'dend[12]'
p3460
sg25
I73500
ssg2293
S'dend[12]'
p3461
ssI136
(dp3462
g24
I76822
sg2269
g10
(g14
S'\x0ba\xb4\x9e\x9b\xc9\xed?'
p3463
tp3464
Rp3465
sg4
(dp3466
g2274
I348
sg2275
I136
sg2276
Nsg2277
I180436
sg2278
I13600100
sg2269
g3465
sg2279
(dp3467
g2281
F0.0
sg2282
F52.0
sg2283
F0.00010617198821380823
sg2284
F1.6059139966964722
ssg2285
I133
sg2286
(lp3468
g2288
ag2289
ag2290
asg24
I76822
sg2291
g2292
sg2293
S'dend[12]'
p3469
sg25
I73500
ssg2293
S'dend[12]'
p3470
ssI137
(dp3471
g24
I76822
sg2269
g10
(g14
S'\x16WC\xe4\x14\xd3\xec?'
p3472
tp3473
Rp3474
sg4
(dp3475
g2274
I348
sg2275
I137
sg2276
Nsg2277
I180436
sg2278
I13700100
sg2269
g3474
sg2279
(dp3476
g2281
F221.0
sg2282
F997.0
sg2283
F0.023928149015847278
sg2284
F1.8109848499298096
ssg2285
I133
sg2286
(lp3477
g2288
ag2289
ag2290
asg24
I76822
sg2291
g2292
sg2293
S'dend[12]'
p3478
sg25
I73500
ssg2293
S'dend[12]'
p3479
ssI138
(dp3480
g24
I76822
sg2269
g10
(g14
S'\xaf\x03\x16\x03y\xe4\xeb?'
p3481
tp3482
Rp3483
sg4
(dp3484
g2274
I348
sg2275
I138
sg2276
Nsg2277
I180436
sg2278
I13800100
sg2269
g3483
sg2279
(dp3485
g2281
F235.0
sg2282
F1053.0
sg2283
F0.025321641603808395
sg2284
F1.8229806423187256
ssg2285
I133
sg2286
(lp3486
g2288
ag2289
ag2290
asg24
I76822
sg2291
g2292
sg2293
S'dend[12]'
p3487
sg25
I73500
ssg2293
S'dend[12]'
p3488
ssI139
(dp3489
g24
I76822
sg2269
g10
(g14
S']\xb9 \xe8,\xb8\xea?'
p3490
tp3491
Rp3492
sg4
(dp3493
g2274
I348
sg2275
I139
sg2276
Nsg2277
I180436
sg2278
I13900100
sg2269
g3492
sg2279
(dp3494
g2281
F73.0
sg2282
F415.0
sg2283
F0.009260694083788594
sg2284
F1.6847203969955444
ssg2285
I133
sg2286
(lp3495
g2288
ag2289
ag2290
asg24
I76822
sg2291
g2292
sg2293
S'dend[12]'
p3496
sg25
I73500
ssg2293
S'dend[12]'
p3497
ssI140
(dp3498
g24
I76822
sg2269
g10
(g14
S'\x96\xa7\x80\xf6\xfe\xc3\xe9?'
p3499
tp3500
Rp3501
sg4
(dp3502
g2274
I348
sg2275
I140
sg2276
Nsg2277
I180436
sg2278
I14000100
sg2269
g3501
sg2279
(dp3503
g2281
F173.0
sg2282
F810.0
sg2283
F0.01919763264489706
sg2284
F1.770262360572815
ssg2285
I133
sg2286
(lp3504
g2288
ag2289
ag2290
asg24
I76822
sg2291
g2292
sg2293
S'dend[12]'
p3505
sg25
I73500
ssg2293
S'dend[12]'
p3506
ssI141
(dp3507
g24
I76822
sg2269
g10
(g14
S'\x91\x8b0\xe6P\xb4\xe8?'
p3508
tp3509
Rp3510
sg4
(dp3511
g2274
I348
sg2275
I141
sg2276
Nsg2277
I180436
sg2278
I14100100
sg2269
g3510
sg2279
(dp3512
g2281
F307.0
sg2282
F1336.0
sg2283
F0.03244973845819479
sg2284
F1.8843426704406738
ssg2285
I133
sg2286
(lp3513
g2288
ag2289
ag2290
asg24
I76822
sg2291
g2292
sg2293
S'dend[12]'
p3514
sg25
I73500
ssg2293
S'dend[12]'
p3515
ssI142
(dp3516
g24
I132272
sg2269
g10
(g14
S'\xfcr\xf7\xb3\x07\xde\xc1?'
p3517
tp3518
Rp3519
sg4
(dp3520
g2274
I339
sg2275
I142
sg2276
Nsg2277
I180436
sg2278
I14200100
sg2269
g3519
sg2279
(dp3521
g2281
F31.0
sg2282
F248.0
sg2283
F0.0050472968312359765
sg2284
F1.6484495401382446
ssg2285
I133
sg2286
(lp3522
g2288
ag2289
ag2290
asg24
I132272
sg2291
g2292
sg2293
S'dend[3]'
p3523
sg25
I73500
ssg2293
S'dend[3]'
p3524
ssI143
(dp3525
g24
I132272
sg2269
g10
(g14
S'\xa2~^\x91\xbf\xb2\xbd?'
p3526
tp3527
Rp3528
sg4
(dp3529
g2274
I339
sg2275
I143
sg2276
Nsg2277
I180436
sg2278
I14300100
sg2269
g3528
sg2279
(dp3530
g2281
F0.0
sg2282
F0.0
sg2283
F0.0
sg2284
F1.5656315088272095
ssg2285
I133
sg2286
(lp3531
g2288
ag2289
ag2290
asg24
I132272
sg2291
g2292
sg2293
S'dend[3]'
p3532
sg25
I73500
ssg2293
S'dend[3]'
p3533
ssI144
(dp3534
g24
I132272
sg2269
g10
(g14
S'qv-\x83\xa4\xb4\x8a?'
p3535
tp3536
Rp3537
sg4
(dp3538
g2274
I338
sg2275
I144
sg2276
Nsg2277
I180436
sg2278
I14400100
sg2269
g3537
sg2279
(dp3539
g2281
F225.0
sg2282
F1012.0
sg2283
F0.024308959355097918
sg2284
F1.8142629861831665
ssg2285
I133
sg2286
(lp3540
g2288
ag2289
ag2290
asg24
I132272
sg2291
g2292
sg2293
S'dend[2]'
p3541
sg25
I73500
ssg2293
S'dend[2]'
p3542
ssI145
(dp3543
g24
I132272
sg2269
g10
(g14
S'\xe4\x87D\xd6\r\x81\xab?'
p3544
tp3545
Rp3546
sg4
(dp3547
g2274
I339
sg2275
I145
sg2276
Nsg2277
I180436
sg2278
I14500100
sg2269
g3546
sg2279
(dp3548
g2281
F0.0
sg2282
F78.0
sg2283
F0.000776380538958626
sg2284
F1.6116834878921509
ssg2285
I133
sg2286
(lp3549
g2288
ag2289
ag2290
asg24
I132272
sg2291
g2292
sg2293
S'dend[3]'
p3550
sg25
I73500
ssg2293
S'dend[3]'
p3551
ssI146
(dp3552
g24
I132272
sg2269
g10
(g14
S'/\t\xae\x1b\x11\xa6\xba?'
p3553
tp3554
Rp3555
sg4
(dp3556
g2274
I339
sg2275
I146
sg2276
Nsg2277
I180436
sg2278
I14600100
sg2269
g3555
sg2279
(dp3557
g2281
F96.0
sg2282
F504.0
sg2283
F0.01150051301012634
sg2284
F1.7040019035339355
ssg2285
I133
sg2286
(lp3558
g2288
ag2289
ag2290
asg24
I132272
sg2291
g2292
sg2293
S'dend[3]'
p3559
sg25
I73500
ssg2293
S'dend[3]'
p3560
ssI147
(dp3561
g24
I161951
sg2269
g10
(g14
S'\tAv\x1c\x0em\xd7?'
p3562
tp3563
Rp3564
sg4
(dp3565
g2274
I353
sg2275
I147
sg2276
Nsg2277
I180436
sg2278
I14700100
sg2269
g3564
sg2279
(dp3566
g2281
F125.0
sg2282
F619.0
sg2283
F0.01439938575995211
sg2284
F1.728956699371338
ssg2285
I133
sg2286
(lp3567
g2288
ag2289
ag2290
asg24
I161951
sg2291
g2292
sg2293
S'dend[17]'
p3568
sg25
I73500
ssg2293
S'dend[17]'
p3569
ssI148
(dp3570
g24
I161951
sg2269
g10
(g14
S'/\xc6\xa8\x0e\xf4\xf1\xdc?'
p3571
tp3572
Rp3573
sg4
(dp3574
g2274
I348
sg2275
I148
sg2276
Nsg2277
I180436
sg2278
I14800100
sg2269
g3573
sg2279
(dp3575
g2281
F306.0
sg2282
F1332.0
sg2283
F0.03236014686955788
sg2284
F1.8835715055465698
ssg2285
I133
sg2286
(lp3576
g2288
ag2289
ag2290
asg24
I161951
sg2291
g2292
sg2293
S'dend[12]'
p3577
sg25
I73500
ssg2293
S'dend[12]'
p3578
ssI149
(dp3579
g24
I161951
sg2269
g10
(g14
S'C\x89\xf6xc\xb6\xd6?'
p3580
tp3581
Rp3582
sg4
(dp3583
g2274
I346
sg2275
I149
sg2276
Nsg2277
I180436
sg2278
I14900100
sg2269
g3582
sg2279
(dp3584
g2281
F274.0
sg2282
F1204.0
sg2283
F0.029129911171120546
sg2284
F1.8557640314102173
ssg2285
I133
sg2286
(lp3585
g2288
ag2289
ag2290
asg24
I161951
sg2291
g2292
sg2293
S'dend[10]'
p3586
sg25
I73500
ssg2293
S'dend[10]'
p3587
ssI150
(dp3588
g24
I161951
sg2269
g10
(g14
S'\xc9\x98e\x1a\x19c\xd0?'
p3589
tp3590
Rp3591
sg4
(dp3592
g2274
I349
sg2275
I150
sg2276
Nsg2277
I180436
sg2278
I15000100
sg2269
g3591
sg2279
(dp3593
g2281
F242.0
sg2282
F1080.0
sg2283
F0.02602136995660795
sg2284
F1.8290042877197266
ssg2285
I133
sg2286
(lp3594
g2288
ag2289
ag2290
asg24
I161951
sg2291
g2292
sg2293
S'dend[13]'
p3595
sg25
I73500
ssg2293
S'dend[13]'
p3596
ssI151
(dp3597
g24
I161951
sg2269
g10
(g14
S'\xd74\x7f\x1bX\x05\xd7?'
p3598
tp3599
Rp3600
sg4
(dp3601
g2274
I349
sg2275
I151
sg2276
Nsg2277
I180436
sg2278
I15100100
sg2269
g3600
sg2279
(dp3602
g2281
F117.0
sg2282
F586.0
sg2283
F0.013567641909901292
sg2284
F1.7217967510223389
ssg2285
I133
sg2286
(lp3603
g2288
ag2289
ag2290
asg24
I161951
sg2291
g2292
sg2293
S'dend[13]'
p3604
sg25
I73500
ssg2293
S'dend[13]'
p3605
ssI152
(dp3606
g24
I161951
sg2269
g10
(g14
S'`Q}\xb4\x98\xa3\xdd?'
p3607
tp3608
Rp3609
sg4
(dp3610
g2274
I349
sg2275
I152
sg2276
Nsg2277
I180436
sg2278
I15200100
sg2269
g3609
sg2279
(dp3611
g2281
F271.0
sg2282
F1193.0
sg2283
F0.02886215422589511
sg2284
F1.853459119796753
ssg2285
I133
sg2286
(lp3612
g2288
ag2289
ag2290
asg24
I161951
sg2291
g2292
sg2293
S'dend[13]'
p3613
sg25
I73500
ssg2293
S'dend[13]'
p3614
ssI153
(dp3615
g24
I161951
sg2269
g10
(g14
S'\x12j\xcf\xf8G$\xcc?'
p3616
tp3617
Rp3618
sg4
(dp3619
g2274
I340
sg2275
I153
sg2276
Nsg2277
I180436
sg2278
I15300100
sg2269
g3618
sg2279
(dp3620
g2281
F87.0
sg2282
F469.0
sg2283
F0.010615428345667106
sg2284
F1.6963826417922974
ssg2285
I133
sg2286
(lp3621
g2288
ag2289
ag2290
asg24
I161951
sg2291
g2292
sg2293
S'dend[4]'
p3622
sg25
I73500
ssg2293
S'dend[4]'
p3623
ssI154
(dp3624
g24
I163946
sg2269
g10
(g14
S'J\xa8\xd8u\xa0\xe2\xcc?'
p3625
tp3626
Rp3627
sg4
(dp3628
g2274
I356
sg2275
I154
sg2276
Nsg2277
I180436
sg2278
I15400100
sg2269
g3627
sg2279
(dp3629
g2281
F76.0
sg2282
F425.0
sg2283
F0.009514533889031599
sg2284
F1.6869056224822998
ssg2285
I133
sg2286
(lp3630
g2288
ag2289
ag2290
asg24
I163946
sg2291
g2292
sg2293
S'dend[20]'
p3631
sg25
I73500
ssg2293
S'dend[20]'
p3632
ssI155
(dp3633
g24
I163946
sg2269
g10
(g14
S'\x02\xd8S\xf6\xf5*\xde?'
p3634
tp3635
Rp3636
sg4
(dp3637
g2274
I337
sg2275
I155
sg2276
Nsg2277
I180436
sg2278
I15500100
sg2269
g3636
sg2279
(dp3638
g2281
F199.0
sg2282
F908.0
sg2283
F0.02168074771487638
sg2284
F1.7916381359100342
ssg2285
I133
sg2286
(lp3639
g2288
ag2289
ag2290
asg24
I163946
sg2291
g2292
sg2293
S'dend[1]'
p3640
sg25
I73500
ssg2293
S'dend[1]'
p3641
ssI156
(dp3642
g24
I163946
sg2269
g10
(g14
S'\x1b\xf2\x83\xb2Hv\xc5?'
p3643
tp3644
Rp3645
sg4
(dp3646
g2274
I356
sg2275
I156
sg2276
Nsg2277
I180436
sg2278
I15600100
sg2269
g3645
sg2279
(dp3647
g2281
F56.0
sg2282
F346.0
sg2283
F0.007509546577167011
sg2284
F1.6696457862854004
ssg2285
I133
sg2286
(lp3648
g2288
ag2289
ag2290
asg24
I163946
sg2291
g2292
sg2293
S'dend[20]'
p3649
sg25
I73500
ssg2293
S'dend[20]'
p3650
ssI157
(dp3651
g24
I163946
sg2269
g10
(g14
S'\xb8D\x94"\x82\xfd\xd5?'
p3652
tp3653
Rp3654
sg4
(dp3655
g2274
I337
sg2275
I157
sg2276
Nsg2277
I180436
sg2278
I15700100
sg2269
g3654
sg2279
(dp3656
g2281
F165.0
sg2282
F776.0
sg2283
F0.018350943448253165
sg2284
F1.762973666191101
ssg2285
I133
sg2286
(lp3657
g2288
ag2289
ag2290
asg24
I163946
sg2291
g2292
sg2293
S'dend[1]'
p3658
sg25
I73500
ssg2293
S'dend[1]'
p3659
ssI158
(dp3660
g24
I163946
sg2269
g10
(g14
S'<M\xb9\x9e\x83\xbf\xdc?'
p3661
tp3662
Rp3663
sg4
(dp3664
g2274
I337
sg2275
I158
sg2276
Nsg2277
I180436
sg2278
I15800100
sg2269
g3663
sg2279
(dp3665
g2281
F265.0
sg2282
F1170.0
sg2283
F0.028280511247957687
sg2284
F1.848452091217041
ssg2285
I133
sg2286
(lp3666
g2288
ag2289
ag2290
asg24
I163946
sg2291
g2292
sg2293
S'dend[1]'
p3667
sg25
I73500
ssg2293
S'dend[1]'
p3668
ssI159
(dp3669
g24
I164882
sg2269
g10
(g14
S'\xcc\x12\x86\x1d\xf1\xdb\xe2?'
p3670
tp3671
Rp3672
sg4
(dp3673
g2274
I348
sg2275
I159
sg2276
Nsg2277
I180436
sg2278
I15900100
sg2269
g3672
sg2279
(dp3674
g2281
F202.0
sg2282
F922.0
sg2283
F0.022030110770377538
sg2284
F1.7946456670761108
ssg2285
I133
sg2286
(lp3675
g2288
ag2289
ag2290
asg24
I164882
sg2291
g2292
sg2293
S'dend[12]'
p3676
sg25
I73500
ssg2293
S'dend[12]'
p3677
ssI160
(dp3678
g24
I164882
sg2269
g10
(g14
S'&\x0c\xf4x\xd2\xd1\xe1?'
p3679
tp3680
Rp3681
sg4
(dp3682
g2274
I348
sg2275
I160
sg2276
Nsg2277
I180436
sg2278
I16000100
sg2269
g3681
sg2279
(dp3683
g2281
F57.0
sg2282
F353.0
sg2283
F0.007687354917571291
sg2284
F1.6711764335632324
ssg2285
I133
sg2286
(lp3684
g2288
ag2289
ag2290
asg24
I164882
sg2291
g2292
sg2293
S'dend[12]'
p3685
sg25
I73500
ssg2293
S'dend[12]'
p3686
ssI161
(dp3687
g24
I164882
sg2269
g10
(g14
S'#\x15f\x80\xaf\x9e\xe0?'
p3688
tp3689
Rp3690
sg4
(dp3691
g2274
I348
sg2275
I161
sg2276
Nsg2277
I180436
sg2278
I16100100
sg2269
g3690
sg2279
(dp3692
g2281
F144.0
sg2282
F692.0
sg2283
F0.016238927877312858
sg2284
F1.7447923421859741
ssg2285
I133
sg2286
(lp3693
g2288
ag2289
ag2290
asg24
I164882
sg2291
g2292
sg2293
S'dend[12]'
p3694
sg25
I73500
ssg2293
S'dend[12]'
p3695
ssI162
(dp3696
g24
I164882
sg2269
g10
(g14
S'\xde\xc0tK\xd7=\xdf?'
p3697
tp3698
Rp3699
sg4
(dp3700
g2274
I348
sg2275
I162
sg2276
Nsg2277
I180436
sg2278
I16200100
sg2269
g3699
sg2279
(dp3701
g2281
F0.0
sg2282
F0.0
sg2283
F0.0
sg2284
F1.5687748193740845
ssg2285
I133
sg2286
(lp3702
g2288
ag2289
ag2290
asg24
I164882
sg2291
g2292
sg2293
S'dend[12]'
p3703
sg25
I73500
ssg2293
S'dend[12]'
p3704
ssI163
(dp3705
g24
I164882
sg2269
g10
(g14
S'\xd6x\xaf\xe2\xf7d\xdd?'
p3706
tp3707
Rp3708
sg4
(dp3709
g2274
I348
sg2275
I163
sg2276
Nsg2277
I180436
sg2278
I16300100
sg2269
g3708
sg2279
(dp3710
g2281
F186.0
sg2282
F857.0
sg2283
F0.02039936859469538
sg2284
F1.7806074619293213
ssg2285
I133
sg2286
(lp3711
g2288
ag2289
ag2290
asg24
I164882
sg2291
g2292
sg2293
S'dend[12]'
p3712
sg25
I73500
ssg2293
S'dend[12]'
p3713
ssI164
(dp3714
g24
I164882
sg2269
g10
(g14
S'\r\xfc~/\xb5\xa6\xdb?'
p3715
tp3716
Rp3717
sg4
(dp3718
g2274
I348
sg2275
I164
sg2276
Nsg2277
I180436
sg2278
I16400100
sg2269
g3717
sg2279
(dp3719
g2281
F153.0
sg2282
F728.0
sg2283
F0.017155685719398156
sg2284
F1.752684235572815
ssg2285
I133
sg2286
(lp3720
g2288
ag2289
ag2290
asg24
I164882
sg2291
g2292
sg2293
S'dend[12]'
p3721
sg25
I73500
ssg2293
S'dend[12]'
p3722
ssI165
(dp3723
g24
I164882
sg2269
g10
(g14
S'"\xbcr\x16\xf5V\xd9?'
p3724
tp3725
Rp3726
sg4
(dp3727
g2274
I348
sg2275
I165
sg2276
Nsg2277
I180436
sg2278
I16500100
sg2269
g3726
sg2279
(dp3728
g2281
F275.0
sg2282
F1210.0
sg2283
F0.029293383039805984
sg2284
F1.8571712970733643
ssg2285
I133
sg2286
(lp3729
g2288
ag2289
ag2290
asg24
I164882
sg2291
g2292
sg2293
S'dend[12]'
p3730
sg25
I73500
ssg2293
S'dend[12]'
p3731
ssI166
(dp3732
g24
I164882
sg2269
g10
(g14
S'mb\x8c\xb3\x91\xa6\xd7?'
p3733
tp3734
Rp3735
sg4
(dp3736
g2274
I348
sg2275
I166
sg2276
Nsg2277
I180436
sg2278
I16600100
sg2269
g3735
sg2279
(dp3737
g2281
F96.0
sg2282
F505.0
sg2283
F0.011533592182398016
sg2284
F1.7042865753173828
ssg2285
I133
sg2286
(lp3738
g2288
ag2289
ag2290
asg24
I164882
sg2291
g2292
sg2293
S'dend[12]'
p3739
sg25
I73500
ssg2293
S'dend[12]'
p3740
ssI167
(dp3741
g24
I164882
sg2269
g10
(g14
S'\x96%e\xb9\x15.\xe1?'
p3742
tp3743
Rp3744
sg4
(dp3745
g2274
I348
sg2275
I167
sg2276
Nsg2277
I180436
sg2278
I16700100
sg2269
g3744
sg2279
(dp3746
g2281
F76.0
sg2282
F424.0
sg2283
F0.00949747241014642
sg2284
F1.6867587566375732
ssg2285
I133
sg2286
(lp3747
g2288
ag2289
ag2290
asg24
I164882
sg2291
g2292
sg2293
S'dend[12]'
p3748
sg25
I73500
ssg2293
S'dend[12]'
p3749
ssI168
(dp3750
g24
I164882
sg2269
g10
(g14
S'\x89\xa2\xd4\xadJ\x9c\xed?'
p3751
tp3752
Rp3753
sg4
(dp3754
g2274
I339
sg2275
I168
sg2276
Nsg2277
I180436
sg2278
I16800100
sg2269
g3753
sg2279
(dp3755
g2281
F74.0
sg2282
F418.0
sg2283
F0.009323741843686619
sg2284
F1.6852631568908691
ssg2285
I133
sg2286
(lp3756
g2288
ag2289
ag2290
asg24
I164882
sg2291
g2292
sg2293
S'dend[3]'
p3757
sg25
I73500
ssg2293
S'dend[3]'
p3758
ssI169
(dp3759
g24
I167798
sg2269
g10
(g14
S'\xbbV\x1d\xf2\x92\xab\xce?'
p3760
tp3761
Rp3762
sg4
(dp3763
g2274
I355
sg2275
I169
sg2276
Nsg2277
I180436
sg2278
I16900100
sg2269
g3762
sg2279
(dp3764
g2281
F114.0
sg2282
F577.0
sg2283
F0.01332893829262985
sg2284
F1.7197418212890625
ssg2285
I133
sg2286
(lp3765
g2288
ag2289
ag2290
asg24
I167798
sg2291
g2292
sg2293
S'dend[19]'
p3766
sg25
I73500
ssg2293
S'dend[19]'
p3767
ssI170
(dp3768
g24
I167798
sg2269
g10
(g14
S'\x00:\x17\xed\xc8D\xd6?'
p3769
tp3770
Rp3771
sg4
(dp3772
g2274
I355
sg2275
I170
sg2276
Nsg2277
I180436
sg2278
I17000100
sg2269
g3771
sg2279
(dp3773
g2281
F187.0
sg2282
F861.0
sg2283
F0.02050265272767881
sg2284
F1.781496524810791
ssg2285
I133
sg2286
(lp3774
g2288
ag2289
ag2290
asg24
I167798
sg2291
g2292
sg2293
S'dend[19]'
p3775
sg25
I73500
ssg2293
S'dend[19]'
p3776
ssI171
(dp3777
g24
I167798
sg2269
g10
(g14
S'\xdc\x13\x15|tY\xd2?'
p3778
tp3779
Rp3780
sg4
(dp3781
g2274
I355
sg2275
I171
sg2276
Nsg2277
I180436
sg2278
I17100100
sg2269
g3780
sg2279
(dp3782
g2281
F85.0
sg2282
F461.0
sg2283
F0.010412308206919777
sg2284
F1.6946340799331665
ssg2285
I133
sg2286
(lp3783
g2288
ag2289
ag2290
asg24
I167798
sg2291
g2292
sg2293
S'dend[19]'
p3784
sg25
I73500
ssg2293
S'dend[19]'
p3785
ssI172
(dp3786
g24
I167798
sg2269
F1e-07
sg4
(dp3787
g2274
I0
sg2275
I172
sg2276
Nsg2277
I180436
sg2278
I17200100
sg2269
F1e-07
sg2279
(dp3788
g2281
F151.0
sg2282
F721.0
sg2283
F0.01697673622544494
sg2284
F1.7511438131332397
ssg2285
I133
sg2286
(lp3789
g2288
ag2289
ag2290
asg24
I167798
sg2291
g2292
sg2293
S'soma[0]'
p3790
sg25
I73500
ssg2293
S'soma[0]'
p3791
ssI173
(dp3792
g24
I167798
sg2269
F1e-07
sg4
(dp3793
g2274
I0
sg2275
I173
sg2276
Nsg2277
I180436
sg2278
I17300100
sg2269
F1e-07
sg2279
(dp3794
g2281
F129.0
sg2282
F635.0
sg2283
F0.014795310217082925
sg2284
F1.7323650121688843
ssg2285
I133
sg2286
(lp3795
g2288
ag2289
ag2290
asg24
I167798
sg2291
g2292
sg2293
S'soma[0]'
p3796
sg25
I73500
ssg2293
S'soma[0]'
p3797
ssI174
(dp3798
g24
I167798
sg2269
g10
(g14
S'(\xdf\x99\r7\xd7\xe5?'
p3799
tp3800
Rp3801
sg4
(dp3802
g2274
I337
sg2275
I174
sg2276
Nsg2277
I180436
sg2278
I17400100
sg2269
g3801
sg2279
(dp3803
g2281
F136.0
sg2282
F662.0
sg2283
F0.015469850104403082
sg2284
F1.7381718158721924
ssg2285
I133
sg2286
(lp3804
g2288
ag2289
ag2290
asg24
I167798
sg2291
g2292
sg2293
S'dend[1]'
p3805
sg25
I73500
ssg2293
S'dend[1]'
p3806
ssI175
(dp3807
g24
I167798
sg2269
g10
(g14
S'\xea&2/\x87\x8d\x85?'
p3808
tp3809
Rp3810
sg4
(dp3811
g2274
I356
sg2275
I175
sg2276
Nsg2277
I180436
sg2278
I17500100
sg2269
g3810
sg2279
(dp3812
g2281
F127.0
sg2282
F626.0
sg2283
F0.014573705727676094
sg2284
F1.7304574251174927
ssg2285
I133
sg2286
(lp3813
g2288
ag2289
ag2290
asg24
I167798
sg2291
g2292
sg2293
S'dend[20]'
p3814
sg25
I73500
ssg2293
S'dend[20]'
p3815
ssI176
(dp3816
g24
I167798
sg2269
g10
(g14
S'\xbd\xf5\xcfk\xadS\xa8?'
p3817
tp3818
Rp3819
sg4
(dp3820
g2274
I356
sg2275
I176
sg2276
Nsg2277
I180436
sg2278
I17600100
sg2269
g3819
sg2279
(dp3821
g2281
F18.0
sg2282
F199.0
sg2283
F0.003816034669319607
sg2284
F1.637850284576416
ssg2285
I133
sg2286
(lp3822
g2288
ag2289
ag2290
asg24
I167798
sg2291
g2292
sg2293
S'dend[20]'
p3823
sg25
I73500
ssg2293
S'dend[20]'
p3824
ssI177
(dp3825
g24
I167798
sg2269
g10
(g14
S'M\xb1#\xb6\x9ez\xce?'
p3826
tp3827
Rp3828
sg4
(dp3829
g2274
I348
sg2275
I177
sg2276
Nsg2277
I180436
sg2278
I17700100
sg2269
g3828
sg2279
(dp3830
g2281
F102.0
sg2282
F529.0
sg2283
F0.012134092106067232
sg2284
F1.709455966949463
ssg2285
I133
sg2286
(lp3831
g2288
ag2289
ag2290
asg24
I167798
sg2291
g2292
sg2293
S'dend[12]'
p3832
sg25
I73500
ssg2293
S'dend[12]'
p3833
ssI178
(dp3834
g24
I167798
sg2269
g10
(g14
S'\x7f/\xbb\x97Xv\xdb?'
p3835
tp3836
Rp3837
sg4
(dp3838
g2274
I355
sg2275
I178
sg2276
Nsg2277
I180436
sg2278
I17800100
sg2269
g3837
sg2279
(dp3839
g2281
F330.0
sg2282
F1425.0
sg2283
F0.03469152227178659
sg2284
F1.9036411046981812
ssg2285
I133
sg2286
(lp3840
g2288
ag2289
ag2290
asg24
I167798
sg2291
g2292
sg2293
S'dend[19]'
p3841
sg25
I73500
ssg2293
S'dend[19]'
p3842
ssI179
(dp3843
g24
I169652
sg2269
F1e-07
sg4
(dp3844
g2274
I0
sg2275
I179
sg2276
Nsg2277
I180436
sg2278
I17900100
sg2269
F1e-07
sg2279
(dp3845
g2281
F294.0
sg2282
F1283.0
sg2283
F0.031126984407860797
sg2284
F1.8729557991027832
ssg2285
I133
sg2286
(lp3846
g2288
ag2289
ag2290
asg24
I169652
sg2291
g2292
sg2293
S'soma[0]'
p3847
sg25
I73500
ssg2293
S'soma[0]'
p3848
ssI180
(dp3849
g24
I169652
sg2269
F1e-07
sg4
(dp3850
g2274
I0
sg2275
I180
sg2276
Nsg2277
I180436
sg2278
I18000100
sg2269
F1e-07
sg2279
(dp3851
g2281
F4.0
sg2282
F143.0
sg2283
F0.0024133844539523724
sg2284
F1.6257755756378174
ssg2285
I133
sg2286
(lp3852
g2288
ag2289
ag2290
asg24
I169652
sg2291
g2292
sg2293
S'soma[0]'
p3853
sg25
I73500
ssg2293
S'soma[0]'
p3854
ssI181
(dp3855
g24
I169652
sg2269
F1e-07
sg4
(dp3856
g2274
I0
sg2275
I181
sg2276
Nsg2277
I180436
sg2278
I18100100
sg2269
F1e-07
sg2279
(dp3857
g2281
F261.0
sg2282
F1155.0
sg2283
F0.027890184804595926
sg2284
F1.8450919389724731
ssg2285
I133
sg2286
(lp3858
g2288
ag2289
ag2290
asg24
I169652
sg2291
g2292
sg2293
S'soma[0]'
p3859
sg25
I73500
ssg2293
S'soma[0]'
p3860
ssI182
(dp3861
g24
I169652
sg2269
F1e-07
sg4
(dp3862
g2274
I0
sg2275
I182
sg2276
Nsg2277
I180436
sg2278
I18200100
sg2269
F1e-07
sg2279
(dp3863
g2281
F165.0
sg2282
F776.0
sg2283
F0.018351352394064213
sg2284
F1.762977123260498
ssg2285
I133
sg2286
(lp3864
g2288
ag2289
ag2290
asg24
I169652
sg2291
g2292
sg2293
S'soma[0]'
p3865
sg25
I73500
ssg2293
S'soma[0]'
p3866
ssI183
(dp3867
g24
I169652
sg2269
g10
(g14
S'\xdb9\xcb\x9a\x87\xc1\xe9?'
p3868
tp3869
Rp3870
sg4
(dp3871
g2274
I336
sg2275
I183
sg2276
Nsg2277
I180436
sg2278
I18300100
sg2269
g3870
sg2279
(dp3872
g2281
F200.0
sg2282
F914.0
sg2283
F0.021838197045093675
sg2284
F1.7929935455322266
ssg2285
I133
sg2286
(lp3873
g2288
ag2289
ag2290
asg24
I169652
sg2291
g2292
sg2293
S'dend[0]'
p3874
sg25
I73500
ssg2293
S'dend[0]'
p3875
ssI184
(dp3876
g24
I169652
sg2269
g10
(g14
S'\xc0\xe9v{\xc2\xc0\xc0?'
p3877
tp3878
Rp3879
sg4
(dp3880
g2274
I337
sg2275
I184
sg2276
Nsg2277
I180436
sg2278
I18400100
sg2269
g3879
sg2279
(dp3881
g2281
F46.0
sg2282
F310.0
sg2283
F0.0066075899769604185
sg2284
F1.6618813276290894
ssg2285
I133
sg2286
(lp3882
g2288
ag2289
ag2290
asg24
I169652
sg2291
g2292
sg2293
S'dend[1]'
p3883
sg25
I73500
ssg2293
S'dend[1]'
p3884
ssI185
(dp3885
g24
I183432
sg2269
F1e-07
sg4
(dp3886
g2274
I0
sg2275
I185
sg2276
Nsg2277
I180436
sg2278
I18500100
sg2269
F1e-07
sg2279
(dp3887
g2281
F0.0
sg2282
F70.0
sg2283
F0.0005580250996785817
sg2284
F1.6098037958145142
ssg2285
I133
sg2286
(lp3888
g2288
ag2289
ag2290
asg24
I183432
sg2291
g2292
sg2293
S'soma[0]'
p3889
sg25
I73500
ssg2293
S'soma[0]'
p3890
ssI186
(dp3891
g24
I183432
sg2269
F1e-07
sg4
(dp3892
g2274
I0
sg2275
I186
sg2276
Nsg2277
I180436
sg2278
I18600100
sg2269
F1e-07
sg2279
(dp3893
g2281
F319.0
sg2282
F1384.0
sg2283
F0.0336652811975186
sg2284
F1.8948067426681519
ssg2285
I133
sg2286
(lp3894
g2288
ag2289
ag2290
asg24
I183432
sg2291
g2292
sg2293
S'soma[0]'
p3895
sg25
I73500
ssg2293
S'soma[0]'
p3896
ssI187
(dp3897
g24
I183432
sg2269
g10
(g14
S'\xc3\xb0\xd2\xf4\xca\xdc\xb9?'
p3898
tp3899
Rp3900
sg4
(dp3901
g2274
I345
sg2275
I187
sg2276
Nsg2277
I180436
sg2278
I18700100
sg2269
g3900
sg2279
(dp3902
g2281
F65.0
sg2282
F381.0
sg2283
F0.008408449715317757
sg2284
F1.6773838996887207
ssg2285
I133
sg2286
(lp3903
g2288
ag2289
ag2290
asg24
I183432
sg2291
g2292
sg2293
S'dend[9]'
p3904
sg25
I73500
ssg2293
S'dend[9]'
p3905
ssI188
(dp3906
g24
I183432
sg2269
g10
(g14
S'\x89\xa5\xce4\x13\x05\xd6?'
p3907
tp3908
Rp3909
sg4
(dp3910
g2274
I349
sg2275
I188
sg2276
Nsg2277
I180436
sg2278
I18800100
sg2269
g3909
sg2279
(dp3911
g2281
F240.0
sg2282
F1071.0
sg2283
F0.025772014274639134
sg2284
F1.8268576860427856
ssg2285
I133
sg2286
(lp3912
g2288
ag2289
ag2290
asg24
I183432
sg2291
g2292
sg2293
S'dend[13]'
p3913
sg25
I73500
ssg2293
S'dend[13]'
p3914
ssI189
(dp3915
g24
I183432
sg2269
g10
(g14
S'Vc,\xb9\xb4\x14\xcf?'
p3916
tp3917
Rp3918
sg4
(dp3919
g2274
I349
sg2275
I189
sg2276
Nsg2277
I180436
sg2278
I18900100
sg2269
g3918
sg2279
(dp3920
g2281
F293.0
sg2282
F1279.0
sg2283
F0.031034419848089585
sg2284
F1.8721590042114258
ssg2285
I133
sg2286
(lp3921
g2288
ag2289
ag2290
asg24
I183432
sg2291
g2292
sg2293
S'dend[13]'
p3922
sg25
I73500
ssg2293
S'dend[13]'
p3923
ssI190
(dp3924
g24
I183432
sg2269
g10
(g14
S'Y\x0c&]Q\xad\xc2?'
p3925
tp3926
Rp3927
sg4
(dp3928
g2274
I349
sg2275
I190
sg2276
Nsg2277
I180436
sg2278
I19000100
sg2269
g3927
sg2279
(dp3929
g2281
F76.0
sg2282
F427.0
sg2283
F0.009549436440324296
sg2284
F1.6872060298919678
ssg2285
I133
sg2286
(lp3930
g2288
ag2289
ag2290
asg24
I183432
sg2291
g2292
sg2293
S'dend[13]'
p3931
sg25
I73500
ssg2293
S'dend[13]'
p3932
ssI191
(dp3933
g24
I186563
sg2269
g10
(g14
S'\xca\xac\xdc\xec0\xb6\xc5?'
p3934
tp3935
Rp3936
sg4
(dp3937
g2274
I340
sg2275
I191
sg2276
Nsg2277
I180436
sg2278
I19100100
sg2269
g3936
sg2279
(dp3938
g2281
F45.0
sg2282
F303.0
sg2283
F0.00643699790732035
sg2284
F1.6604126691818237
ssg2285
I133
sg2286
(lp3939
g2288
ag2289
ag2290
asg24
I186563
sg2291
g2292
sg2293
S'dend[4]'
p3940
sg25
I73500
ssg2293
S'dend[4]'
p3941
ssI192
(dp3942
g24
I186563
sg2269
g10
(g14
S'=\xe7I\xb9ZA\xcc?'
p3943
tp3944
Rp3945
sg4
(dp3946
g2274
I340
sg2275
I192
sg2276
Nsg2277
I180436
sg2278
I19200100
sg2269
g3945
sg2279
(dp3947
g2281
F65.0
sg2282
F382.0
sg2283
F0.008434406090153461
sg2284
F1.6776074171066284
ssg2285
I133
sg2286
(lp3948
g2288
ag2289
ag2290
asg24
I186563
sg2291
g2292
sg2293
S'dend[4]'
p3949
sg25
I73500
ssg2293
S'dend[4]'
p3950
ssI193
(dp3951
g24
I186563
sg2269
g10
(g14
S'=\xa2\x9d=F\xa7\xd0?'
p3952
tp3953
Rp3954
sg4
(dp3955
g2274
I340
sg2275
I193
sg2276
Nsg2277
I180436
sg2278
I19300100
sg2269
g3954
sg2279
(dp3956
g2281
F45.0
sg2282
F305.0
sg2283
F0.0064893936025210005
sg2284
F1.6608637571334839
ssg2285
I133
sg2286
(lp3957
g2288
ag2289
ag2290
asg24
I186563
sg2291
g2292
sg2293
S'dend[4]'
p3958
sg25
I73500
ssg2293
S'dend[4]'
p3959
ssI194
(dp3960
g24
I186563
sg2269
g10
(g14
S'\xb6\xe4\x19jR\x84\xd3?'
p3961
tp3962
Rp3963
sg4
(dp3964
g2274
I340
sg2275
I194
sg2276
Nsg2277
I180436
sg2278
I19400100
sg2269
g3963
sg2279
(dp3965
g2281
F173.0
sg2282
F807.0
sg2283
F0.019139741496940286
sg2284
F1.7697639465332031
ssg2285
I133
sg2286
(lp3966
g2288
ag2289
ag2290
asg24
I186563
sg2291
g2292
sg2293
S'dend[4]'
p3967
sg25
I73500
ssg2293
S'dend[4]'
p3968
ssI195
(dp3969
g24
I186563
sg2269
g10
(g14
S'0}\xbf\xa5x\x9b\xe2?'
p3970
tp3971
Rp3972
sg4
(dp3973
g2274
I350
sg2275
I195
sg2276
Nsg2277
I180436
sg2278
I19500100
sg2269
g3972
sg2279
(dp3974
g2281
F300.0
sg2282
F1306.0
sg2283
F0.03170211541059748
sg2284
F1.8779067993164062
ssg2285
I133
sg2286
(lp3975
g2288
ag2289
ag2290
asg24
I186563
sg2291
g2292
sg2293
S'dend[14]'
p3976
sg25
I73500
ssg2293
S'dend[14]'
p3977
ssI196
(dp3978
g24
I186563
sg2269
g10
(g14
S'p\xf1\x8d\xa3\x0f,\xa2?'
p3979
tp3980
Rp3981
sg4
(dp3982
g2274
I353
sg2275
I196
sg2276
Nsg2277
I180436
sg2278
I19600100
sg2269
g3981
sg2279
(dp3983
g2281
F18.0
sg2282
F199.0
sg2283
F0.003820896580628768
sg2284
F1.6378921270370483
ssg2285
I133
sg2286
(lp3984
g2288
ag2289
ag2290
asg24
I186563
sg2291
g2292
sg2293
S'dend[17]'
p3985
sg25
I73500
ssg2293
S'dend[17]'
p3986
ssI197
(dp3987
g24
I187570
sg2269
F1e-07
sg4
(dp3988
g2274
I0
sg2275
I197
sg2276
Nsg2277
I180436
sg2278
I19700100
sg2269
F1e-07
sg2279
(dp3989
g2281
F462.0
sg2282
F16.0
sg2283
F0.07274750368043277
sg2557
F6.975008487701416
sg2558
F0.04501704894907117
ssg2285
I1
sg2286
(lp3990
g2560
ag2561
asg24
I187570
sg2291
g2562
sg2293
S'soma[0]'
p3991
sg25
I73500
ssg2293
S'soma[0]'
p3992
ssI198
(dp3993
g24
I187570
sg2269
F1e-07
sg4
(dp3994
g2274
I0
sg2275
I198
sg2276
Nsg2277
I180436
sg2278
I19800100
sg2269
F1e-07
sg2279
(dp3995
g2281
F985.0
sg2282
F27.0
sg2283
F0.14390402248006776
sg2557
F9.81723690032959
sg2558
F0.005834061313708143
ssg2285
I1
sg2286
(lp3996
g2560
ag2561
asg24
I187570
sg2291
g2562
sg2293
S'soma[0]'
p3997
sg25
I73500
ssg2293
S'soma[0]'
p3998
ssI199
(dp3999
g24
I187570
sg2269
F1e-07
sg4
(dp4000
g2274
I0
sg2275
I199
sg2276
Nsg2277
I180436
sg2278
I19900100
sg2269
F1e-07
sg2279
(dp4001
g2281
F745.0
sg2282
F22.0
sg2283
F0.11119219501995956
sg2557
F8.51061725616455
sg2558
F0.3661069503496635
ssg2285
I1
sg2286
(lp4002
g2560
ag2561
asg24
I187570
sg2291
g2562
sg2293
S'soma[0]'
p4003
sg25
I73500
ssg2293
S'soma[0]'
p4004
ssI200
(dp4005
g24
I187570
sg2269
F1e-07
sg4
(dp4006
g2274
I0
sg2275
I200
sg2276
Nsg2277
I180436
sg2278
I20000100
sg2269
F1e-07
sg2279
(dp4007
g2281
F840.0
sg2282
F24.0
sg2283
F0.12418400712320007
sg2557
F9.029553413391113
sg2558
F0.2794592747968858
ssg2285
I1
sg2286
(lp4008
g2560
ag2561
asg24
I187570
sg2291
g2562
sg2293
S'soma[0]'
p4009
sg25
I73500
ssg2293
S'soma[0]'
p4010
ssI201
(dp4011
g24
I187570
sg2269
g10
(g14
S'\x15\xa1_\x86\x0c\xc8\xd6?'
p4012
tp4013
Rp4014
sg4
(dp4015
g2274
I346
sg2275
I201
sg2276
Nsg2277
I180436
sg2278
I20100100
sg2269
g4014
sg2279
(dp4016
g2281
F727.0
sg2282
F21.0
sg2283
F0.10883163372034838
sg2557
F8.416328430175781
sg2558
F0.31470711865328815
ssg2285
I1
sg2286
(lp4017
g2560
ag2561
asg24
I187570
sg2291
g2562
sg2293
S'dend[10]'
p4018
sg25
I73500
ssg2293
S'dend[10]'
p4019
ssI202
(dp4020
g24
I187570
sg2269
g10
(g14
S'8\xcb\xe4\xff\xd4\xc2\xc5?'
p4021
tp4022
Rp4023
sg4
(dp4024
g2274
I346
sg2275
I202
sg2276
Nsg2277
I180436
sg2278
I20200100
sg2269
g4023
sg2279
(dp4025
g2281
F866.0
sg2282
F25.0
sg2283
F0.1276580671782608
sg2557
F9.168318748474121
sg2558
F0.13728208431582772
ssg2285
I1
sg2286
(lp4026
g2560
ag2561
asg24
I187570
sg2291
g2562
sg2293
S'dend[10]'
p4027
sg25
I73500
ssg2293
S'dend[10]'
p4028
ssI203
(dp4029
g24
I187570
sg2269
g10
(g14
S'\xba\xe1\xe0]\x8b\xd9\xc6?'
p4030
tp4031
Rp4032
sg4
(dp4033
g2274
I340
sg2275
I203
sg2276
Nsg2277
I180436
sg2278
I20300100
sg2269
g4032
sg2279
(dp4034
g2281
F634.0
sg2282
F19.0
sg2283
F0.09609183519802135
sg2557
F7.907458782196045
sg2558
F0.251982460639327
ssg2285
I1
sg2286
(lp4035
g2560
ag2561
asg24
I187570
sg2291
g2562
sg2293
S'dend[4]'
p4036
sg25
I73500
ssg2293
S'dend[4]'
p4037
ssI204
(dp4038
g24
I201568
sg2269
g10
(g14
S'D\xcf\x89\xc8~\n\xcf?'
p4039
tp4040
Rp4041
sg4
(dp4042
g2274
I336
sg2275
I204
sg2276
Nsg2277
I180436
sg2278
I20400100
sg2269
g4041
sg2279
(dp4043
g2281
F207.0
sg2282
F941.0
sg2283
F0.022497467025653257
sg2284
F1.7986688613891602
ssg2285
I133
sg2286
(lp4044
g2288
ag2289
ag2290
asg24
I201568
sg2291
g2292
sg2293
S'dend[0]'
p4045
sg25
I73500
ssg2293
S'dend[0]'
p4046
ssI205
(dp4047
g24
I201568
sg2269
g10
(g14
S'E\x1b?\xd9\xd1\xa6\xe3?'
p4048
tp4049
Rp4050
sg4
(dp4051
g2274
I336
sg2275
I205
sg2276
Nsg2277
I180436
sg2278
I20500100
sg2269
g4050
sg2279
(dp4052
g2281
F262.0
sg2282
F1159.0
sg2283
F0.027998497023694276
sg2284
F1.8460243940353394
ssg2285
I133
sg2286
(lp4053
g2288
ag2289
ag2290
asg24
I201568
sg2291
g2292
sg2293
S'dend[0]'
p4054
sg25
I73500
ssg2293
S'dend[0]'
p4055
ssI206
(dp4056
g24
I201568
sg2269
g10
(g14
S'N\xcf\x9b\xca\xc3\xdf\xda?'
p4057
tp4058
Rp4059
sg4
(dp4060
g2274
I337
sg2275
I206
sg2276
Nsg2277
I180436
sg2278
I20600100
sg2269
g4059
sg2279
(dp4061
g2281
F43.0
sg2282
F298.0
sg2283
F0.006301797825705568
sg2284
F1.6592488288879395
ssg2285
I133
sg2286
(lp4062
g2288
ag2289
ag2290
asg24
I201568
sg2291
g2292
sg2293
S'dend[1]'
p4063
sg25
I73500
ssg2293
S'dend[1]'
p4064
ssI207
(dp4065
g24
I201568
sg2269
g10
(g14
S'\x12\xcc\x86\x91\xd5\x87\xe4?'
p4066
tp4067
Rp4068
sg4
(dp4069
g2274
I337
sg2275
I207
sg2276
Nsg2277
I180436
sg2278
I20700100
sg2269
g4068
sg2279
(dp4070
g2281
F200.0
sg2282
F913.0
sg2283
F0.021811905075044772
sg2284
F1.7927671670913696
ssg2285
I133
sg2286
(lp4071
g2288
ag2289
ag2290
asg24
I201568
sg2291
g2292
sg2293
S'dend[1]'
p4072
sg25
I73500
ssg2293
S'dend[1]'
p4073
ssI208
(dp4074
g24
I201568
sg2269
g10
(g14
S'~\xf50-\xc6\xfb\xec?'
p4075
tp4076
Rp4077
sg4
(dp4078
g2274
I337
sg2275
I208
sg2276
Nsg2277
I180436
sg2278
I20800100
sg2269
g4077
sg2279
(dp4079
g2281
F178.0
sg2282
F829.0
sg2283
F0.019694979557890516
sg2284
F1.7745437622070312
ssg2285
I133
sg2286
(lp4080
g2288
ag2289
ag2290
asg24
I201568
sg2291
g2292
sg2293
S'dend[1]'
p4081
sg25
I73500
ssg2293
S'dend[1]'
p4082
ssI209
(dp4083
g24
I201568
sg2269
g10
(g14
S'\xf4\xbeNC\xd2\x17\x8d?'
p4084
tp4085
Rp4086
sg4
(dp4087
g2274
I338
sg2275
I209
sg2276
Nsg2277
I180436
sg2278
I20900100
sg2269
g4086
sg2279
(dp4088
g2281
F144.0
sg2282
F692.0
sg2283
F0.01623536550491437
sg2284
F1.7447617053985596
ssg2285
I133
sg2286
(lp4089
g2288
ag2289
ag2290
asg24
I201568
sg2291
g2292
sg2293
S'dend[2]'
p4090
sg25
I73500
ssg2293
S'dend[2]'
p4091
ssI210
(dp4092
g24
I201611
sg2269
F1e-07
sg4
(dp4093
g2274
I0
sg2275
I210
sg2276
Nsg2277
I180436
sg2278
I21000100
sg2269
F1e-07
sg2279
(dp4094
g2281
F844.0
sg2282
F24.0
sg2283
F0.12472314875812292
sg2557
F9.0510892868042
sg2558
F0.0723413451728214
ssg2285
I1
sg2286
(lp4095
g2560
ag2561
asg24
I201611
sg2291
g2562
sg2293
S'soma[0]'
p4096
sg25
I73500
ssg2293
S'soma[0]'
p4097
ssI211
(dp4098
g24
I201611
sg2269
F1e-07
sg4
(dp4099
g2274
I0
sg2275
I211
sg2276
Nsg2277
I180436
sg2278
I21100100
sg2269
F1e-07
sg2279
(dp4100
g2281
F916.0
sg2282
F26.0
sg2283
F0.13447186590586027
sg2557
F9.440485000610352
sg2558
F0.36179685725417954
ssg2285
I1
sg2286
(lp4101
g2560
ag2561
asg24
I201611
sg2291
g2562
sg2293
S'soma[0]'
p4102
sg25
I73500
ssg2293
S'soma[0]'
p4103
ssI212
(dp4104
g24
I201611
sg2269
g10
(g14
S'\x83\x8eu6\xd3u\xb3?'
p4105
tp4106
Rp4107
sg4
(dp4108
g2274
I356
sg2275
I212
sg2276
Nsg2277
I180436
sg2278
I21200100
sg2269
g4107
sg2279
(dp4109
g2281
F855.0
sg2282
F24.0
sg2283
F0.12619136556200192
sg2557
F9.109733581542969
sg2558
F0.16870196821487357
ssg2285
I1
sg2286
(lp4110
g2560
ag2561
asg24
I201611
sg2291
g2562
sg2293
S'dend[20]'
p4111
sg25
I73500
ssg2293
S'dend[20]'
p4112
ssI213
(dp4113
g24
I201611
sg2269
F1e-07
sg4
(dp4114
g2274
I0
sg2275
I213
sg2276
Nsg2277
I180436
sg2278
I21300100
sg2269
F1e-07
sg2279
(dp4115
g2281
F765.0
sg2282
F22.0
sg2283
F0.11392896477907859
sg2557
F8.619933128356934
sg2558
F0.04675125504988481
ssg2285
I1
sg2286
(lp4116
g2560
ag2561
asg24
I201611
sg2291
g2562
sg2293
S'soma[0]'
p4117
sg25
I73500
ssg2293
S'soma[0]'
p4118
ssI214
(dp4119
g24
I201611
sg2269
F1e-07
sg4
(dp4120
g2274
I0
sg2275
I214
sg2276
Nsg2277
I180436
sg2278
I21400100
sg2269
F1e-07
sg2279
(dp4121
g2281
F351.0
sg2282
F13.0
sg2283
F0.05765960627666991
sg2557
F6.372347354888916
sg2558
F0.07725435132957587
ssg2285
I1
sg2286
(lp4122
g2560
ag2561
asg24
I201611
sg2291
g2562
sg2293
S'soma[0]'
p4123
sg25
I73500
ssg2293
S'soma[0]'
p4124
ssI215
(dp4125
g24
I201611
sg2269
g10
(g14
S'\x87\xb0\xae\xb4\xf0Y\xee?'
p4126
tp4127
Rp4128
sg4
(dp4129
g2274
I337
sg2275
I215
sg2276
Nsg2277
I180436
sg2278
I21500100
sg2269
g4128
sg2279
(dp4130
g2281
F794.0
sg2282
F23.0
sg2283
F0.11782244139394711
sg2557
F8.77545166015625
sg2558
F0.38611250622250276
ssg2285
I1
sg2286
(lp4131
g2560
ag2561
asg24
I201611
sg2291
g2562
sg2293
S'dend[1]'
p4132
sg25
I73500
ssg2293
S'dend[1]'
p4133
ssI216
(dp4134
g24
I201611
sg2269
g10
(g14
S'\xeac\x05\xecD\xf2\x92?'
p4135
tp4136
Rp4137
sg4
(dp4138
g2274
I338
sg2275
I216
sg2276
Nsg2277
I180436
sg2278
I21600100
sg2269
g4137
sg2279
(dp4139
g2281
F615.0
sg2282
F19.0
sg2283
F0.09353566948993675
sg2557
F7.805356979370117
sg2558
F0.06475377548869345
ssg2285
I1
sg2286
(lp4140
g2560
ag2561
asg24
I201611
sg2291
g2562
sg2293
S'dend[2]'
p4141
sg25
I73500
ssg2293
S'dend[2]'
p4142
ssI217
(dp4143
g24
I201611
sg2269
g10
(g14
S'(}\xad\x05\x96\xac\xa5?'
p4144
tp4145
Rp4146
sg4
(dp4147
g2274
I338
sg2275
I217
sg2276
Nsg2277
I180436
sg2278
I21700100
sg2269
g4146
sg2279
(dp4148
g2281
F698.0
sg2282
F21.0
sg2283
F0.10479140487119121
sg2557
F8.254948616027832
sg2558
F0.40280103138488077
ssg2285
I1
sg2286
(lp4149
g2560
ag2561
asg24
I201611
sg2291
g2562
sg2293
S'dend[2]'
p4150
sg25
I73500
ssg2293
S'dend[2]'
p4151
ssI218
(dp4152
g24
I201611
sg2269
g10
(g14
S'[\xa8$\xe7\x0b\xdf\xb0?'
p4153
tp4154
Rp4155
sg4
(dp4156
g2274
I338
sg2275
I218
sg2276
Nsg2277
I180436
sg2278
I21800100
sg2269
g4155
sg2279
(dp4157
g2281
F483.0
sg2282
F16.0
sg2283
F0.07555447713261654
sg2557
F7.087128162384033
sg2558
F0.05355891691281872
ssg2285
I1
sg2286
(lp4158
g2560
ag2561
asg24
I201611
sg2291
g2562
sg2293
S'dend[2]'
p4159
sg25
I73500
ssg2293
S'dend[2]'
p4160
ssI219
(dp4161
g24
I201742
sg2269
g10
(g14
S'\x14\x88\xd0h\xd16\xe6?'
p4162
tp4163
Rp4164
sg4
(dp4165
g2274
I355
sg2275
I219
sg2276
Nsg2277
I180436
sg2278
I21900100
sg2269
g4164
sg2279
(dp4166
g2281
F241.0
sg2282
F1073.0
sg2283
F0.02584317603872468
sg2284
F1.827470302581787
ssg2285
I133
sg2286
(lp4167
g2288
ag2289
ag2290
asg24
I201742
sg2291
g2292
sg2293
S'dend[19]'
p4168
sg25
I73500
ssg2293
S'dend[19]'
p4169
ssI220
(dp4170
g24
I201742
sg2269
g10
(g14
S'\xad@Qq}H\xe5?'
p4171
tp4172
Rp4173
sg4
(dp4174
g2274
I355
sg2275
I220
sg2276
Nsg2277
I180436
sg2278
I22000100
sg2269
g4173
sg2279
(dp4175
g2281
F97.0
sg2282
F510.0
sg2283
F0.011657093817335401
sg2284
F1.7053498029708862
ssg2285
I133
sg2286
(lp4176
g2288
ag2289
ag2290
asg24
I201742
sg2291
g2292
sg2293
S'dend[19]'
p4177
sg25
I73500
ssg2293
S'dend[19]'
p4178
ssI221
(dp4179
g24
I201742
sg2269
g10
(g14
S'\x91\x91\x9a\xa2\xf1\xbe\xe5?'
p4180
tp4181
Rp4182
sg4
(dp4183
g2274
I355
sg2275
I221
sg2276
Nsg2277
I180436
sg2278
I22100100
sg2269
g4182
sg2279
(dp4184
g2281
F0.0
sg2282
F40.0
sg2283
F0.0
sg2284
F1.603386402130127
ssg2285
I133
sg2286
(lp4185
g2288
ag2289
ag2290
asg24
I201742
sg2291
g2292
sg2293
S'dend[19]'
p4186
sg25
I73500
ssg2293
S'dend[19]'
p4187
ssI222
(dp4188
g24
I201742
sg2269
g10
(g14
S'\x89 \x9d&Zj\xe0?'
p4189
tp4190
Rp4191
sg4
(dp4192
g2274
I355
sg2275
I222
sg2276
Nsg2277
I180436
sg2278
I22200100
sg2269
g4191
sg2279
(dp4193
g2281
F0.0
sg2282
F0.0
sg2283
F0.0
sg2284
F1.594273567199707
ssg2285
I133
sg2286
(lp4194
g2288
ag2289
ag2290
asg24
I201742
sg2291
g2292
sg2293
S'dend[19]'
p4195
sg25
I73500
ssg2293
S'dend[19]'
p4196
ssI223
(dp4197
g24
I201742
sg2269
g10
(g14
S'\xec\xe1\xdf\xe2\xf4U\xef?'
p4198
tp4199
Rp4200
sg4
(dp4201
g2274
I351
sg2275
I223
sg2276
Nsg2277
I180436
sg2278
I22300100
sg2269
g4200
sg2279
(dp4202
g2281
F277.0
sg2282
F1219.0
sg2283
F0.029504695077181033
sg2284
F1.8589904308319092
ssg2285
I133
sg2286
(lp4203
g2288
ag2289
ag2290
asg24
I201742
sg2291
g2292
sg2293
S'dend[15]'
p4204
sg25
I73500
ssg2293
S'dend[15]'
p4205
ssI224
(dp4206
g24
I201742
sg2269
g10
(g14
S'\xd5o\x1e\x15\x1dS\xe1?'
p4207
tp4208
Rp4209
sg4
(dp4210
g2274
I351
sg2275
I224
sg2276
Nsg2277
I180436
sg2278
I22400100
sg2269
g4209
sg2279
(dp4211
g2281
F2.0
sg2282
F136.0
sg2283
F0.0022419219139430666
sg2284
F1.6242995262145996
ssg2285
I133
sg2286
(lp4212
g2288
ag2289
ag2290
asg24
I201742
sg2291
g2292
sg2293
S'dend[15]'
p4213
sg25
I73500
ssg2293
S'dend[15]'
p4214
ssI225
(dp4215
g24
I202260
sg2269
F1e-07
sg4
(dp4216
g2274
I0
sg2275
I225
sg2276
Nsg2277
I180436
sg2278
I22500100
sg2269
F1e-07
sg2279
(dp4217
g2281
F0.0
sg2282
F0.0
sg2283
F0.0
sg2284
F1.5806894302368164
ssg2285
I133
sg2286
(lp4218
g2288
ag2289
ag2290
asg24
I202260
sg2291
g2292
sg2293
S'soma[0]'
p4219
sg25
I73500
ssg2293
S'soma[0]'
p4220
ssI226
(dp4221
g24
I202260
sg2269
F1e-07
sg4
(dp4222
g2274
I0
sg2275
I226
sg2276
Nsg2277
I180436
sg2278
I22600100
sg2269
F1e-07
sg2279
(dp4223
g2281
F258.0
sg2282
F1144.0
sg2283
F0.027621368494983766
sg2284
F1.8427778482437134
ssg2285
I133
sg2286
(lp4224
g2288
ag2289
ag2290
asg24
I202260
sg2291
g2292
sg2293
S'soma[0]'
p4225
sg25
I73500
ssg2293
S'soma[0]'
p4226
ssI227
(dp4227
g24
I202260
sg2269
F1e-07
sg4
(dp4228
g2274
I0
sg2275
I227
sg2276
Nsg2277
I180436
sg2278
I22700100
sg2269
F1e-07
sg2279
(dp4229
g2281
F171.0
sg2282
F799.0
sg2283
F0.018930914292207623
sg2284
F1.7679662704467773
ssg2285
I133
sg2286
(lp4230
g2288
ag2289
ag2290
asg24
I202260
sg2291
g2292
sg2293
S'soma[0]'
p4231
sg25
I73500
ssg2293
S'soma[0]'
p4232
ssI228
(dp4233
g24
I202260
sg2269
g10
(g14
S',\x86\x8fk\xd8\xc4\xda?'
p4234
tp4235
Rp4236
sg4
(dp4237
g2274
I343
sg2275
I228
sg2276
Nsg2277
I180436
sg2278
I22800100
sg2269
g4236
sg2279
(dp4238
g2281
F169.0
sg2282
F790.0
sg2283
F0.018711213023623014
sg2284
F1.7660750150680542
ssg2285
I133
sg2286
(lp4239
g2288
ag2289
ag2290
asg24
I202260
sg2291
g2292
sg2293
S'dend[7]'
p4240
sg25
I73500
ssg2293
S'dend[7]'
p4241
ssI229
(dp4242
g24
I202260
sg2269
g10
(g14
S'\xc7\x8dC#\xa0\x1e\xa1?'
p4243
tp4244
Rp4245
sg4
(dp4246
g2274
I350
sg2275
I229
sg2276
Nsg2277
I180436
sg2278
I22900100
sg2269
g4245
sg2279
(dp4247
g2281
F199.0
sg2282
F910.0
sg2283
F0.02173233460613962
sg2284
F1.7920821905136108
ssg2285
I133
sg2286
(lp4248
g2288
ag2289
ag2290
asg24
I202260
sg2291
g2292
sg2293
S'dend[14]'
p4249
sg25
I73500
ssg2293
S'dend[14]'
p4250
ssI230
(dp4251
g24
I202260
sg2269
g10
(g14
S'\xa9\x00\x15\xc4,\xc5g?'
p4252
tp4253
Rp4254
sg4
(dp4255
g2274
I356
sg2275
I230
sg2276
Nsg2277
I180436
sg2278
I23000100
sg2269
g4254
sg2279
(dp4256
g2281
F223.0
sg2282
F1006.0
sg2283
F0.024151267253875335
sg2284
F1.8129055500030518
ssg2285
I133
sg2286
(lp4257
g2288
ag2289
ag2290
asg24
I202260
sg2291
g2292
sg2293
S'dend[20]'
p4258
sg25
I73500
ssg2293
S'dend[20]'
p4259
ssI231
(dp4260
g24
I202260
sg2269
g10
(g14
S'r\xf9\x91\x06\x97P\xec?'
p4261
tp4262
Rp4263
sg4
(dp4264
g2274
I337
sg2275
I231
sg2276
Nsg2277
I180436
sg2278
I23100100
sg2269
g4263
sg2279
(dp4265
g2281
F0.0
sg2282
F20.0
sg2283
F0.0
sg2284
F1.5990158319473267
ssg2285
I133
sg2286
(lp4266
g2288
ag2289
ag2290
asg24
I202260
sg2291
g2292
sg2293
S'dend[1]'
p4267
sg25
I73500
ssg2293
S'dend[1]'
p4268
ssI232
(dp4269
g24
I202260
sg2269
g10
(g14
S'\xc5\x8f\xfa\xbdy\x84\x8d?'
p4270
tp4271
Rp4272
sg4
(dp4273
g2274
I338
sg2275
I232
sg2276
Nsg2277
I180436
sg2278
I23200100
sg2269
g4272
sg2279
(dp4274
g2281
F112.0
sg2282
F567.0
sg2283
F0.013075645046708915
sg2284
F1.7175613641738892
ssg2285
I133
sg2286
(lp4275
g2288
ag2289
ag2290
asg24
I202260
sg2291
g2292
sg2293
S'dend[2]'
p4276
sg25
I73500
ssg2293
S'dend[2]'
p4277
ssI233
(dp4278
g24
I202260
sg2269
g10
(g14
S'\x8d@"\x1a\xe7\xa4\x8f?'
p4279
tp4280
Rp4281
sg4
(dp4282
g2274
I356
sg2275
I233
sg2276
Nsg2277
I180436
sg2278
I23300100
sg2269
g4281
sg2279
(dp4283
g2281
F128.0
sg2282
F632.0
sg2283
F0.014721764883127255
sg2284
F1.73173189163208
ssg2285
I133
sg2286
(lp4284
g2288
ag2289
ag2290
asg24
I202260
sg2291
g2292
sg2293
S'dend[20]'
p4285
sg25
I73500
ssg2293
S'dend[20]'
p4286
ssI234
(dp4287
g24
I203823
sg2269
F1e-07
sg4
(dp4288
g2274
I0
sg2275
I234
sg2276
Nsg2277
I180436
sg2278
I23400100
sg2269
F1e-07
sg2279
(dp4289
g2281
F16.0
sg2282
F190.0
sg2283
F0.003591971636643957
sg2284
F1.6359213590621948
ssg2285
I133
sg2286
(lp4290
g2288
ag2289
ag2290
asg24
I203823
sg2291
g2292
sg2293
S'soma[0]'
p4291
sg25
I73500
ssg2293
S'soma[0]'
p4292
ssI235
(dp4293
g24
I203823
sg2269
F1e-07
sg4
(dp4294
g2274
I0
sg2275
I235
sg2276
Nsg2277
I180436
sg2278
I23500100
sg2269
F1e-07
sg2279
(dp4295
g2281
F245.0
sg2282
F1092.0
sg2283
F0.026309615736087377
sg2284
F1.831485629081726
ssg2285
I133
sg2286
(lp4296
g2288
ag2289
ag2290
asg24
I203823
sg2291
g2292
sg2293
S'soma[0]'
p4297
sg25
I73500
ssg2293
S'soma[0]'
p4298
ssI236
(dp4299
g24
I203823
sg2269
g10
(g14
S'\x9d\x9c\x07\xe3\x06\xb0\xb4?'
p4300
tp4301
Rp4302
sg4
(dp4303
g2274
I348
sg2275
I236
sg2276
Nsg2277
I180436
sg2278
I23600100
sg2269
g4302
sg2279
(dp4304
g2281
F0.0
sg2282
F95.0
sg2283
F0.001204686282860948
sg2284
F1.615370512008667
ssg2285
I133
sg2286
(lp4305
g2288
ag2289
ag2290
asg24
I203823
sg2291
g2292
sg2293
S'dend[12]'
p4306
sg25
I73500
ssg2293
S'dend[12]'
p4307
ssI237
(dp4308
g24
I203823
sg2269
g10
(g14
S'\xb0\xb2f\x8f=\x8c\xad?'
p4309
tp4310
Rp4311
sg4
(dp4312
g2274
I348
sg2275
I237
sg2276
Nsg2277
I180436
sg2278
I23700100
sg2269
g4311
sg2279
(dp4313
g2281
F195.0
sg2282
F893.0
sg2283
F0.021310210354047475
sg2284
F1.788448452949524
ssg2285
I133
sg2286
(lp4314
g2288
ag2289
ag2290
asg24
I203823
sg2291
g2292
sg2293
S'dend[12]'
p4315
sg25
I73500
ssg2293
S'dend[12]'
p4316
ssI238
(dp4317
g24
I203823
sg2269
g10
(g14
S'\xc4\xb5a>\xc1\x01\xef?'
p4318
tp4319
Rp4320
sg4
(dp4321
g2274
I356
sg2275
I238
sg2276
Nsg2277
I180436
sg2278
I23800100
sg2269
g4320
sg2279
(dp4322
g2281
F91.0
sg2282
F485.0
sg2283
F0.011031374270410706
sg2284
F1.6999633312225342
ssg2285
I133
sg2286
(lp4323
g2288
ag2289
ag2290
asg24
I203823
sg2291
g2292
sg2293
S'dend[20]'
p4324
sg25
I73500
ssg2293
S'dend[20]'
p4325
ssI239
(dp4326
g24
I206636
sg2269
g10
(g14
S'\xdc\x8b\nfe\xb6\xe2?'
p4327
tp4328
Rp4329
sg4
(dp4330
g2274
I348
sg2275
I239
sg2276
Nsg2277
I180436
sg2278
I23900100
sg2269
g4329
sg2279
(dp4331
g2281
F258.0
sg2282
F1142.0
sg2283
F0.027569109115053465
sg2284
F1.8423279523849487
ssg2285
I133
sg2286
(lp4332
g2288
ag2289
ag2290
asg24
I206636
sg2291
g2292
sg2293
S'dend[12]'
p4333
sg25
I73500
ssg2293
S'dend[12]'
p4334
ssI240
(dp4335
g24
I206636
sg2269
g10
(g14
S'\xf5\x9c\xcc\xb4R\xf4\xee?'
p4336
tp4337
Rp4338
sg4
(dp4339
g2274
I347
sg2275
I240
sg2276
Nsg2277
I180436
sg2278
I24000100
sg2269
g4338
sg2279
(dp4340
g2281
F216.0
sg2282
F976.0
sg2283
F0.023381823377096617
sg2284
F1.8062818050384521
ssg2285
I133
sg2286
(lp4341
g2288
ag2289
ag2290
asg24
I206636
sg2291
g2292
sg2293
S'dend[11]'
p4342
sg25
I73500
ssg2293
S'dend[11]'
p4343
ssI241
(dp4344
g24
I206636
sg2269
g10
(g14
S'D\xd8\x8a\xdc\xdb?\xcb?'
p4345
tp4346
Rp4347
sg4
(dp4348
g2274
I347
sg2275
I241
sg2276
Nsg2277
I180436
sg2278
I24100100
sg2269
g4347
sg2279
(dp4349
g2281
F0.0
sg2282
F23.0
sg2283
F0.0
sg2284
F1.5997658967971802
ssg2285
I133
sg2286
(lp4350
g2288
ag2289
ag2290
asg24
I206636
sg2291
g2292
sg2293
S'dend[11]'
p4351
sg25
I73500
ssg2293
S'dend[11]'
p4352
ssI242
(dp4353
g24
I206636
sg2269
g10
(g14
S'\xd0C\xdcG\xd6^\xbf?'
p4354
tp4355
Rp4356
sg4
(dp4357
g2274
I347
sg2275
I242
sg2276
Nsg2277
I180436
sg2278
I24200100
sg2269
g4356
sg2279
(dp4358
g2281
F42.0
sg2282
F292.0
sg2283
F0.006167324109745653
sg2284
F1.6580913066864014
ssg2285
I133
sg2286
(lp4359
g2288
ag2289
ag2290
asg24
I206636
sg2291
g2292
sg2293
S'dend[11]'
p4360
sg25
I73500
ssg2293
S'dend[11]'
p4361
ssI243
(dp4362
g24
I206636
sg2269
g10
(g14
S'*\rs\xd3\x9a\xa3\x93?'
p4363
tp4364
Rp4365
sg4
(dp4366
g2274
I347
sg2275
I243
sg2276
Nsg2277
I180436
sg2278
I24300100
sg2269
g4365
sg2279
(dp4367
g2281
F312.0
sg2282
F1355.0
sg2283
F0.03294214296895755
sg2284
F1.88858163356781
ssg2285
I133
sg2286
(lp4368
g2288
ag2289
ag2290
asg24
I206636
sg2291
g2292
sg2293
S'dend[11]'
p4369
sg25
I73500
ssg2293
S'dend[11]'
p4370
ssI244
(dp4371
g24
I208607
sg2269
F1e-07
sg4
(dp4372
g2274
I0
sg2275
I244
sg2276
Nsg2277
I180436
sg2278
I24400100
sg2269
F1e-07
sg2279
(dp4373
g2281
F130.0
sg2282
F638.0
sg2283
F0.014876903344951944
sg2284
F1.7330673933029175
ssg2285
I133
sg2286
(lp4374
g2288
ag2289
ag2290
asg24
I208607
sg2291
g2292
sg2293
S'soma[0]'
p4375
sg25
I73500
ssg2293
S'soma[0]'
p4376
ssI245
(dp4377
g24
I208607
sg2269
F1e-07
sg4
(dp4378
g2274
I0
sg2275
I245
sg2276
Nsg2277
I180436
sg2278
I24500100
sg2269
F1e-07
sg2279
(dp4379
g2281
F16.0
sg2282
F190.0
sg2283
F0.003591995004976017
sg2284
F1.635921597480774
ssg2285
I133
sg2286
(lp4380
g2288
ag2289
ag2290
asg24
I208607
sg2291
g2292
sg2293
S'soma[0]'
p4381
sg25
I73500
ssg2293
S'soma[0]'
p4382
ssI246
(dp4383
g24
I208607
sg2269
F1e-07
sg4
(dp4384
g2274
I0
sg2275
I246
sg2276
Nsg2277
I180436
sg2278
I24600100
sg2269
F1e-07
sg2279
(dp4385
g2281
F321.0
sg2282
F1388.0
sg2283
F0.03377763094510065
sg2284
F1.8957738876342773
ssg2285
I133
sg2286
(lp4386
g2288
ag2289
ag2290
asg24
I208607
sg2291
g2292
sg2293
S'soma[0]'
p4387
sg25
I73500
ssg2293
S'soma[0]'
p4388
ssI247
(dp4389
g24
I208607
sg2269
g10
(g14
S'\xf1l\xd9\xc1\xdc\xb1\xe7?'
p4390
tp4391
Rp4392
sg4
(dp4393
g2274
I337
sg2275
I247
sg2276
Nsg2277
I180436
sg2278
I24700100
sg2269
g4392
sg2279
(dp4394
g2281
F206.0
sg2282
F937.0
sg2283
F0.022416124458233547
sg2284
F1.7979686260223389
ssg2285
I133
sg2286
(lp4395
g2288
ag2289
ag2290
asg24
I208607
sg2291
g2292
sg2293
S'dend[1]'
p4396
sg25
I73500
ssg2293
S'dend[1]'
p4397
ssI248
(dp4398
g24
I208607
sg2269
g10
(g14
S']H\x00&\x11\x95\xea?'
p4399
tp4400
Rp4401
sg4
(dp4402
g2274
I337
sg2275
I248
sg2276
Nsg2277
I180436
sg2278
I24800100
sg2269
g4401
sg2279
(dp4403
g2281
F161.0
sg2282
F760.0
sg2283
F0.017945498992289217
sg2284
F1.7594833374023438
ssg2285
I133
sg2286
(lp4404
g2288
ag2289
ag2290
asg24
I208607
sg2291
g2292
sg2293
S'dend[1]'
p4405
sg25
I73500
ssg2293
S'dend[1]'
p4406
ssI249
(dp4407
g24
I208607
sg2269
g10
(g14
S'X\x87<J\xb9}\xea?'
p4408
tp4409
Rp4410
sg4
(dp4411
g2274
I337
sg2275
I249
sg2276
Nsg2277
I180436
sg2278
I24900100
sg2269
g4410
sg2279
(dp4412
g2281
F128.0
sg2282
F630.0
sg2283
F0.01468484681319438
sg2284
F1.7314140796661377
ssg2285
I133
sg2286
(lp4413
g2288
ag2289
ag2290
asg24
I208607
sg2291
g2292
sg2293
S'dend[1]'
p4414
sg25
I73500
ssg2293
S'dend[1]'
p4415
ssas.