(dp0
I9600
(lp1
(lp2
I2000
aI6666
aa(lp3
I2300
aI9600
aa(lp4
I2600
aI9600
aa(lp5
I2900
aI9600
aa(lp6
I3200
aI9600
aa(lp7
I3500
aI9600
aa(lp8
I3800
aI9600
aa(lp9
I4100
aI9600
aa(lp10
I4400
aI9600
aa(lp11
I4700
aI9600
aa(lp12
I5000
aI9600
aa(lp13
I5300
aI9600
aa(lp14
I5600
aI9600
aa(lp15
I5900
aI9600
aa(lp16
I6200
aI9600
aa(lp17
I6500
aI9600
aa(lp18
I6800
aI9600
aa(lp19
I7100
aI9600
aa(lp20
I7400
aI9600
aa(lp21
I7700
aI9600
aa(lp22
I8000
aI9600
aa(lp23
I8300
aI9600
aa(lp24
I8600
aI9600
aa(lp25
I8900
aI9600
aa(lp26
I9200
aI6666
aa(lp27
I9500
aI9600
aa(lp28
I9800
aI9600
aa(lp29
I10100
aI6666
aa(lp30
I10400
aI9600
aa(lp31
I10700
aI9600
aa(lp32
I11000
aI9600
aa(lp33
I11300
aI9600
aa(lp34
I11600
aI9600
aa(lp35
I11900
aI9600
aa(lp36
I12200
aI9600
aa(lp37
I12500
aI9600
aa(lp38
I12800
aI9600
aa(lp39
I13100
aI9600
aa(lp40
I13400
aI9600
aa(lp41
I13700
aI9600
aa(lp42
I14000
aI9600
aa(lp43
I14300
aI9600
aa(lp44
I14600
aI9600
aa(lp45
I14900
aI9600
aa(lp46
I15200
aI9600
aa(lp47
I15500
aI9600
aa(lp48
I15800
aI9600
aa(lp49
I16100
aI9600
aa(lp50
I16400
aI9600
aa(lp51
I16700
aI9600
aa(lp52
I17000
aI9600
aa(lp53
I17300
aI9600
aa(lp54
I17600
aI9600
aa(lp55
I17900
aI9600
aa(lp56
I18200
aI9600
aa(lp57
I18500
aI9600
aa(lp58
I18800
aI9600
aa(lp59
I19100
aI9600
aa(lp60
I19400
aI9600
aa(lp61
I19700
aI9600
aa(lp62
I20000
aI9600
aa(lp63
I20300
aI9600
aa(lp64
I20600
aI9600
aa(lp65
I20900
aI9600
aa(lp66
I21200
aI9600
aa(lp67
I21500
aI9600
aa(lp68
I21800
aI9600
aa(lp69
I22100
aI9600
aa(lp70
I22400
aI9600
aa(lp71
I22700
aI9600
aa(lp72
I23000
aI6666
aa(lp73
I23300
aI9600
aa(lp74
I23600
aI6666
aa(lp75
I23900
aI9600
aa(lp76
I24200
aI9600
aa(lp77
I24500
aI9600
aa(lp78
I24800
aI9600
aa(lp79
I25100
aI9600
aa(lp80
I25400
aI6666
aa(lp81
I25700
aI9600
aa(lp82
I26000
aI9600
aa(lp83
I26300
aI9600
aa(lp84
I26600
aI9600
aa(lp85
I26900
aI9600
aa(lp86
I27200
aI9600
aa(lp87
I27500
aI9600
aa(lp88
I27800
aI9600
aa(lp89
I28100
aI9600
aa(lp90
I28400
aI6666
aa(lp91
I28700
aI9600
aa(lp92
I29000
aI6666
aa(lp93
I29300
aI6666
aa(lp94
I29600
aI9600
aa(lp95
I29900
aI9600
aa(lp96
I30200
aI6666
aa(lp97
I30500
aI9600
aa(lp98
I30800
aI9600
aa(lp99
I31100
aI9600
aa(lp100
I31400
aI9600
aa(lp101
I31700
aI9600
aa(lp102
I32000
aI9600
aa(lp103
I32300
aI9600
aa(lp104
I32600
aI9600
aa(lp105
I32900
aI9600
aa(lp106
I33200
aI9600
aa(lp107
I33500
aI9600
aa(lp108
I33800
aI9600
aa(lp109
I34100
aI9600
aa(lp110
I34400
aI9600
aa(lp111
I34700
aI9600
aa(lp112
I35000
aI9600
aa(lp113
I35300
aI9600
aa(lp114
I35600
aI9600
aa(lp115
I35900
aI9600
aa(lp116
I36200
aI9600
aa(lp117
I36500
aI9600
aa(lp118
I36800
aI9600
aa(lp119
I37100
aI9600
aa(lp120
I37400
aI9600
aa(lp121
I37700
aI9600
aa(lp122
I38000
aI9600
aa(lp123
I38300
aI9600
aa(lp124
I38600
aI9600
aa(lp125
I38900
aI9600
aa(lp126
I39200
aI9600
aa(lp127
I39500
aI9600
aa(lp128
I39800
aI9600
aa(lp129
I40100
aI9600
aa(lp130
I40400
aI6666
aa(lp131
I40700
aI9600
aa(lp132
I41000
aI9600
aa(lp133
I41300
aI9600
aa(lp134
I41600
aI9600
aa(lp135
I41900
aI6666
aa(lp136
I42200
aI9600
aa(lp137
I42500
aI9600
aa(lp138
I42800
aI9600
aa(lp139
I43100
aI9600
aa(lp140
I43400
aI9600
aa(lp141
I43700
aI9600
aa(lp142
I44000
aI9600
aa(lp143
I44300
aI9600
aa(lp144
I44600
aI9600
aa(lp145
I44900
aI9600
aa(lp146
I45200
aI9600
aa(lp147
I45500
aI9600
aa(lp148
I45800
aI9600
aa(lp149
I46100
aI9600
aa(lp150
I46400
aI9600
aa(lp151
I46700
aI9600
aa(lp152
I47000
aI9600
aa(lp153
I47300
aI9600
aa(lp154
I47600
aI9600
aa(lp155
I47900
aI9600
aa(lp156
I48200
aI9600
aa(lp157
I48500
aI9600
aa(lp158
I48800
aI9600
aa(lp159
I49100
aI9600
aa(lp160
I49400
aI9600
aa(lp161
I49700
aI9600
aa(lp162
I50000
aI9600
aa(lp163
I50300
aI9600
aa(lp164
I50600
aI9600
aa(lp165
I50900
aI9600
aa(lp166
I51200
aI9600
aa(lp167
I51500
aI9600
aa(lp168
I51800
aI9600
aa(lp169
I52100
aI9600
aa(lp170
I52400
aI9600
aa(lp171
I52700
aI9600
aa(lp172
I53000
aI6666
aa(lp173
I53300
aI9600
aa(lp174
I53600
aI9600
aa(lp175
I53900
aI9600
aa(lp176
I54200
aI9600
aa(lp177
I54500
aI9600
aa(lp178
I54800
aI9600
aa(lp179
I55100
aI9600
aa(lp180
I55400
aI9600
aa(lp181
I55700
aI9600
aa(lp182
I56000
aI9600
aa(lp183
I56300
aI9600
aa(lp184
I56600
aI9600
aa(lp185
I56900
aI9600
aa(lp186
I57200
aI9600
aa(lp187
I57500
aI9600
aa(lp188
I57800
aI6666
aa(lp189
I58100
aI9600
aa(lp190
I58400
aI9600
aa(lp191
I58700
aI9600
aa(lp192
I59000
aI9600
aa(lp193
I59300
aI9600
aa(lp194
I59600
aI9600
aa(lp195
I59900
aI9600
aa(lp196
I60200
aI9600
aa(lp197
I60500
aI9600
aa(lp198
I60800
aI9600
aa(lp199
I61100
aI9600
aa(lp200
I61400
aI9600
aa(lp201
I61700
aI9600
aa(lp202
I62000
aI9600
aa(lp203
I62300
aI9600
aa(lp204
I62600
aI9600
aa(lp205
I62900
aI9600
aa(lp206
I63200
aI9600
aa(lp207
I63500
aI9600
aa(lp208
I63800
aI9600
aa(lp209
I64100
aI9600
aa(lp210
I64400
aI9600
aa(lp211
I64700
aI9600
aa(lp212
I65000
aI9600
aa(lp213
I65300
aI9600
aa(lp214
I65600
aI9600
aa(lp215
I65900
aI9600
aa(lp216
I66200
aI9600
aa(lp217
I66500
aI9600
aa(lp218
I66800
aI9600
aa(lp219
I67100
aI9600
aa(lp220
I67400
aI9600
aa(lp221
I67700
aI9600
aa(lp222
I68000
aI9600
aa(lp223
I68300
aI9600
aa(lp224
I68600
aI9600
aa(lp225
I68900
aI9600
aa(lp226
I69200
aI9600
aa(lp227
I69500
aI9600
aa(lp228
I69800
aI9600
aa(lp229
I70100
aI6666
aa(lp230
I70400
aI9600
aa(lp231
I70700
aI9600
aa(lp232
I71000
aI9600
aa(lp233
I71300
aI9600
aa(lp234
I71600
aI9600
aa(lp235
I71900
aI9600
aa(lp236
I72200
aI9600
aa(lp237
I72500
aI9600
aa(lp238
I72800
aI9600
aa(lp239
I73100
aI9600
aa(lp240
I73400
aI6666
aa(lp241
I73700
aI9600
aa(lp242
I74000
aI9600
aa(lp243
I74300
aI9600
aa(lp244
I74600
aI9600
aa(lp245
I74900
aI9600
aa(lp246
I75200
aI9600
aa(lp247
I75500
aI9600
aa(lp248
I75800
aI9600
aa(lp249
I76100
aI6666
aa(lp250
I76400
aI9600
aa(lp251
I76700
aI9600
aa(lp252
I77000
aI9600
aa(lp253
I77300
aI9600
aa(lp254
I77600
aI9600
aa(lp255
I77900
aI9600
aa(lp256
I78200
aI9600
aa(lp257
I78500
aI9600
aa(lp258
I78800
aI9600
aa(lp259
I79100
aI9600
aa(lp260
I79400
aI9600
aa(lp261
I79700
aI9600
aa(lp262
I80000
aI6666
aa(lp263
I80300
aI9600
aa(lp264
I80600
aI9600
aa(lp265
I80900
aI9600
aa(lp266
I81200
aI9600
aa(lp267
I81500
aI9600
aa(lp268
I81800
aI9600
aa(lp269
I82100
aI9600
aa(lp270
I82400
aI9600
aa(lp271
I82700
aI9600
aa(lp272
I83000
aI9600
aa(lp273
I83300
aI9600
aa(lp274
I83600
aI9600
aa(lp275
I83900
aI9600
aa(lp276
I84200
aI9600
aa(lp277
I84500
aI9600
aa(lp278
I84800
aI9600
aa(lp279
I85100
aI9600
aa(lp280
I85400
aI9600
aa(lp281
I85700
aI9600
aa(lp282
I86000
aI9600
aa(lp283
I86300
aI9600
aa(lp284
I86600
aI9600
aa(lp285
I86900
aI9600
aa(lp286
I87200
aI9600
aa(lp287
I87500
aI9600
aa(lp288
I87800
aI9600
aa(lp289
I88100
aI9600
aa(lp290
I88400
aI9600
aa(lp291
I88700
aI9600
aa(lp292
I89000
aI9600
aa(lp293
I89300
aI9600
aa(lp294
I89600
aI9600
aa(lp295
I89900
aI9600
aa(lp296
I90200
aI9600
aa(lp297
I90500
aI9600
aa(lp298
I90800
aI9600
aa(lp299
I91100
aI9600
aa(lp300
I91400
aI9600
aa(lp301
I91700
aI9600
aa(lp302
I92000
aI9600
aa(lp303
I92300
aI9600
aa(lp304
I92600
aI9600
aa(lp305
I92900
aI9600
aa(lp306
I93200
aI9600
aa(lp307
I93500
aI9600
aa(lp308
I93800
aI9600
aa(lp309
I94100
aI9600
aa(lp310
I94400
aI9600
aa(lp311
I94700
aI9600
aa(lp312
I95000
aI9600
aa(lp313
I95300
aI9600
aa(lp314
I95600
aI9600
aa(lp315
I95900
aI9600
aa(lp316
I96200
aI9600
aa(lp317
I96500
aI9600
aa(lp318
I96800
aI9600
aa(lp319
I97100
aI9600
aa(lp320
I97400
aI9600
aa(lp321
I97700
aI6666
aa(lp322
I98000
aI9600
aa(lp323
I98300
aI9600
aa(lp324
I98600
aI9600
aa(lp325
I98900
aI9600
aa(lp326
I99200
aI9600
aa(lp327
I99500
aI9600
aa(lp328
I99800
aI9600
aa(lp329
I100100
aI9600
aa(lp330
I100400
aI9600
aa(lp331
I100700
aI9600
aa(lp332
I101000
aI9600
aa(lp333
I101300
aI9600
aa(lp334
I101600
aI9600
aa(lp335
I101900
aI9600
aa(lp336
I102200
aI9600
aa(lp337
I102500
aI9600
aa(lp338
I102800
aI9600
aa(lp339
I103100
aI9600
aa(lp340
I103400
aI6666
aa(lp341
I103700
aI9600
aa(lp342
I104000
aI9600
aa(lp343
I104300
aI9600
aa(lp344
I104600
aI9600
aa(lp345
I104900
aI9600
aa(lp346
I105200
aI9600
aa(lp347
I105500
aI9600
aa(lp348
I105800
aI9600
aa(lp349
I106100
aI9600
aa(lp350
I106400
aI9600
aa(lp351
I106700
aI9600
aa(lp352
I107000
aI9600
aa(lp353
I107300
aI6666
aa(lp354
I107600
aI9600
aa(lp355
I107900
aI6666
aa(lp356
I108200
aI9600
aa(lp357
I108500
aI9600
aa(lp358
I108800
aI9600
aa(lp359
I109100
aI9600
aa(lp360
I109400
aI9600
aa(lp361
I109700
aI9600
aa(lp362
I110000
aI9600
aa(lp363
I110300
aI9600
aa(lp364
I110600
aI9600
aa(lp365
I110900
aI6666
aa(lp366
I111200
aI9600
aa(lp367
I111500
aI9600
aa(lp368
I111800
aI9600
aa(lp369
I112100
aI9600
aa(lp370
I112400
aI9600
aa(lp371
I112700
aI9600
aa(lp372
I113000
aI9600
aa(lp373
I113300
aI9600
aa(lp374
I113600
aI9600
aa(lp375
I113900
aI9600
aa(lp376
I114200
aI9600
aa(lp377
I114500
aI9600
aa(lp378
I114800
aI9600
aa(lp379
I115100
aI9600
aa(lp380
I115400
aI9600
aa(lp381
I115700
aI9600
aa(lp382
I116000
aI9600
aa(lp383
I116300
aI9600
aa(lp384
I116600
aI9600
aa(lp385
I116900
aI9600
aa(lp386
I117200
aI9600
aa(lp387
I117500
aI9600
aa(lp388
I117800
aI9600
aa(lp389
I118100
aI9600
aa(lp390
I118400
aI9600
aa(lp391
I118700
aI9600
aa(lp392
I119000
aI9600
aa(lp393
I119300
aI9600
aa(lp394
I119600
aI9600
aa(lp395
I119900
aI9600
aa(lp396
I120200
aI9600
aa(lp397
I120500
aI9600
aa(lp398
I120800
aI9600
aa(lp399
I121100
aI9600
aa(lp400
I121400
aI9600
aa(lp401
I121700
aI9600
aa(lp402
I122000
aI9600
aa(lp403
I122300
aI9600
aa(lp404
I122600
aI9600
aa(lp405
I122900
aI9600
aa(lp406
I123200
aI9600
aa(lp407
I123500
aI9600
aa(lp408
I123800
aI9600
aa(lp409
I124100
aI9600
aa(lp410
I124400
aI9600
aa(lp411
I124700
aI9600
aa(lp412
I125000
aI9600
aa(lp413
I125300
aI9600
aa(lp414
I125600
aI9600
aa(lp415
I125900
aI9600
aa(lp416
I126200
aI9600
aa(lp417
I126500
aI9600
aa(lp418
I126800
aI9600
aa(lp419
I127100
aI9600
aa(lp420
I127400
aI9600
aa(lp421
I127700
aI9600
aa(lp422
I128000
aI9600
aa(lp423
I128300
aI9600
aa(lp424
I128600
aI9600
aa(lp425
I128900
aI9600
aa(lp426
I129200
aI6666
aa(lp427
I129500
aI9600
aa(lp428
I129800
aI9600
aa(lp429
I130100
aI9600
aa(lp430
I130400
aI9600
aa(lp431
I130700
aI9600
aa(lp432
I131000
aI9600
aa(lp433
I131300
aI9600
aa(lp434
I131600
aI9600
aa(lp435
I131900
aI9600
aa(lp436
I132200
aI9600
aa(lp437
I132500
aI9600
aa(lp438
I132800
aI9600
aa(lp439
I133100
aI9600
aa(lp440
I133400
aI9600
aa(lp441
I133700
aI9600
aa(lp442
I134000
aI9600
aa(lp443
I134300
aI9600
aa(lp444
I134600
aI9600
aa(lp445
I134900
aI9600
aa(lp446
I135200
aI9600
aa(lp447
I135500
aI9600
aa(lp448
I135800
aI9600
aa(lp449
I136100
aI9600
aa(lp450
I136400
aI9600
aa(lp451
I136700
aI9600
aa(lp452
I137000
aI9600
aa(lp453
I137300
aI9600
aa(lp454
I137600
aI9600
aa(lp455
I137900
aI9600
aa(lp456
I138200
aI9600
aa(lp457
I138500
aI9600
aa(lp458
I138800
aI9600
aa(lp459
I139100
aI9600
aa(lp460
I139400
aI9600
aa(lp461
I139700
aI9600
aa(lp462
I140000
aI9600
aa(lp463
I140300
aI9600
aa(lp464
I140600
aI9600
aa(lp465
I140900
aI9600
aa(lp466
I141200
aI9600
aa(lp467
I141500
aI9600
aa(lp468
I141800
aI9600
aa(lp469
I142100
aI9600
aa(lp470
I142400
aI9600
aa(lp471
I142700
aI9600
aa(lp472
I143000
aI9600
aa(lp473
I143300
aI9600
aa(lp474
I143600
aI6666
aa(lp475
I143900
aI9600
aa(lp476
I144200
aI9600
aa(lp477
I144500
aI9600
aa(lp478
I144800
aI9600
aa(lp479
I145100
aI9600
aa(lp480
I145400
aI9600
aa(lp481
I145700
aI9600
aa(lp482
I146000
aI9600
aa(lp483
I146300
aI9600
aa(lp484
I146600
aI9600
aa(lp485
I146900
aI9600
aa(lp486
I147200
aI9600
aa(lp487
I147500
aI9600
aa(lp488
I147800
aI9600
aa(lp489
I148100
aI9600
aa(lp490
I148400
aI9600
aa(lp491
I148700
aI9600
aa(lp492
I149000
aI9600
aa(lp493
I149300
aI9600
aa(lp494
I149600
aI9600
aa(lp495
I149900
aI9600
aa(lp496
I150200
aI9600
aa(lp497
I150500
aI9600
aa(lp498
I150800
aI9600
aa(lp499
I151100
aI9600
aa(lp500
I151400
aI9600
aa(lp501
I151700
aI9600
aasI6666
(lp502
(lp503
I2000
aI9600
aa(lp504
I2300
aI6666
aa(lp505
I2600
aI6666
aa(lp506
I2900
aI6666
aa(lp507
I3200
aI6666
aa(lp508
I3500
aI6666
aa(lp509
I3800
aI6666
aa(lp510
I4100
aI6666
aa(lp511
I4400
aI6666
aa(lp512
I4700
aI6666
aa(lp513
I5000
aI6666
aa(lp514
I5300
aI6666
aa(lp515
I5600
aI6666
aa(lp516
I5900
aI6666
aa(lp517
I6200
aI6666
aa(lp518
I6500
aI6666
aa(lp519
I6800
aI6666
aa(lp520
I7100
aI6666
aa(lp521
I7400
aI6666
aa(lp522
I7700
aI6666
aa(lp523
I8000
aI6666
aa(lp524
I8300
aI6666
aa(lp525
I8600
aI6666
aa(lp526
I8900
aI6666
aa(lp527
I9200
aI9600
aa(lp528
I9500
aI6666
aa(lp529
I9800
aI6666
aa(lp530
I10100
aI9600
aa(lp531
I10400
aI6666
aa(lp532
I10700
aI6666
aa(lp533
I11000
aI6666
aa(lp534
I11300
aI6666
aa(lp535
I11600
aI6666
aa(lp536
I11900
aI6666
aa(lp537
I12200
aI6666
aa(lp538
I12500
aI6666
aa(lp539
I12800
aI6666
aa(lp540
I13100
aI6666
aa(lp541
I13400
aI6666
aa(lp542
I13700
aI6666
aa(lp543
I14000
aI6666
aa(lp544
I14300
aI6666
aa(lp545
I14600
aI6666
aa(lp546
I14900
aI6666
aa(lp547
I15200
aI6666
aa(lp548
I15500
aI6666
aa(lp549
I15800
aI6666
aa(lp550
I16100
aI6666
aa(lp551
I16400
aI6666
aa(lp552
I16700
aI6666
aa(lp553
I17000
aI6666
aa(lp554
I17300
aI6666
aa(lp555
I17600
aI6666
aa(lp556
I17900
aI6666
aa(lp557
I18200
aI6666
aa(lp558
I18500
aI6666
aa(lp559
I18800
aI6666
aa(lp560
I19100
aI6666
aa(lp561
I19400
aI6666
aa(lp562
I19700
aI6666
aa(lp563
I20000
aI6666
aa(lp564
I20300
aI6666
aa(lp565
I20600
aI6666
aa(lp566
I20900
aI6666
aa(lp567
I21200
aI6666
aa(lp568
I21500
aI6666
aa(lp569
I21800
aI6666
aa(lp570
I22100
aI6666
aa(lp571
I22400
aI6666
aa(lp572
I22700
aI6666
aa(lp573
I23000
aI9600
aa(lp574
I23300
aI6666
aa(lp575
I23600
aI9600
aa(lp576
I23900
aI6666
aa(lp577
I24200
aI6666
aa(lp578
I24500
aI6666
aa(lp579
I24800
aI6666
aa(lp580
I25100
aI6666
aa(lp581
I25400
aI9600
aa(lp582
I25700
aI6666
aa(lp583
I26000
aI6666
aa(lp584
I26300
aI6666
aa(lp585
I26600
aI6666
aa(lp586
I26900
aI6666
aa(lp587
I27200
aI6666
aa(lp588
I27500
aI6666
aa(lp589
I27800
aI6666
aa(lp590
I28100
aI6666
aa(lp591
I28400
aI9600
aa(lp592
I28700
aI6666
aa(lp593
I29000
aI9600
aa(lp594
I29300
aI9600
aa(lp595
I29600
aI6666
aa(lp596
I29900
aI6666
aa(lp597
I30200
aI9600
aa(lp598
I30500
aI6666
aa(lp599
I30800
aI6666
aa(lp600
I31100
aI6666
aa(lp601
I31400
aI6666
aa(lp602
I31700
aI6666
aa(lp603
I32000
aI6666
aa(lp604
I32300
aI6666
aa(lp605
I32600
aI6666
aa(lp606
I32900
aI6666
aa(lp607
I33200
aI6666
aa(lp608
I33500
aI6666
aa(lp609
I33800
aI6666
aa(lp610
I34100
aI6666
aa(lp611
I34400
aI6666
aa(lp612
I34700
aI6666
aa(lp613
I35000
aI6666
aa(lp614
I35300
aI6666
aa(lp615
I35600
aI6666
aa(lp616
I35900
aI6666
aa(lp617
I36200
aI6666
aa(lp618
I36500
aI6666
aa(lp619
I36800
aI6666
aa(lp620
I37100
aI6666
aa(lp621
I37400
aI6666
aa(lp622
I37700
aI6666
aa(lp623
I38000
aI6666
aa(lp624
I38300
aI6666
aa(lp625
I38600
aI6666
aa(lp626
I38900
aI6666
aa(lp627
I39200
aI6666
aa(lp628
I39500
aI6666
aa(lp629
I39800
aI6666
aa(lp630
I40100
aI6666
aa(lp631
I40400
aI9600
aa(lp632
I40700
aI6666
aa(lp633
I41000
aI6666
aa(lp634
I41300
aI6666
aa(lp635
I41600
aI6666
aa(lp636
I41900
aI9600
aa(lp637
I42200
aI6666
aa(lp638
I42500
aI6666
aa(lp639
I42800
aI6666
aa(lp640
I43100
aI6666
aa(lp641
I43400
aI6666
aa(lp642
I43700
aI6666
aa(lp643
I44000
aI6666
aa(lp644
I44300
aI6666
aa(lp645
I44600
aI6666
aa(lp646
I44900
aI6666
aa(lp647
I45200
aI6666
aa(lp648
I45500
aI6666
aa(lp649
I45800
aI6666
aa(lp650
I46100
aI6666
aa(lp651
I46400
aI6666
aa(lp652
I46700
aI6666
aa(lp653
I47000
aI6666
aa(lp654
I47300
aI6666
aa(lp655
I47600
aI6666
aa(lp656
I47900
aI6666
aa(lp657
I48200
aI6666
aa(lp658
I48500
aI6666
aa(lp659
I48800
aI6666
aa(lp660
I49100
aI6666
aa(lp661
I49400
aI6666
aa(lp662
I49700
aI6666
aa(lp663
I50000
aI6666
aa(lp664
I50300
aI6666
aa(lp665
I50600
aI6666
aa(lp666
I50900
aI6666
aa(lp667
I51200
aI6666
aa(lp668
I51500
aI6666
aa(lp669
I51800
aI6666
aa(lp670
I52100
aI6666
aa(lp671
I52400
aI6666
aa(lp672
I52700
aI6666
aa(lp673
I53000
aI9600
aa(lp674
I53300
aI6666
aa(lp675
I53600
aI6666
aa(lp676
I53900
aI6666
aa(lp677
I54200
aI6666
aa(lp678
I54500
aI6666
aa(lp679
I54800
aI6666
aa(lp680
I55100
aI6666
aa(lp681
I55400
aI6666
aa(lp682
I55700
aI6666
aa(lp683
I56000
aI6666
aa(lp684
I56300
aI6666
aa(lp685
I56600
aI6666
aa(lp686
I56900
aI6666
aa(lp687
I57200
aI6666
aa(lp688
I57500
aI6666
aa(lp689
I57800
aI9600
aa(lp690
I58100
aI6666
aa(lp691
I58400
aI6666
aa(lp692
I58700
aI6666
aa(lp693
I59000
aI6666
aa(lp694
I59300
aI6666
aa(lp695
I59600
aI6666
aa(lp696
I59900
aI6666
aa(lp697
I60200
aI6666
aa(lp698
I60500
aI6666
aa(lp699
I60800
aI6666
aa(lp700
I61100
aI6666
aa(lp701
I61400
aI6666
aa(lp702
I61700
aI6666
aa(lp703
I62000
aI6666
aa(lp704
I62300
aI6666
aa(lp705
I62600
aI6666
aa(lp706
I62900
aI6666
aa(lp707
I63200
aI6666
aa(lp708
I63500
aI6666
aa(lp709
I63800
aI6666
aa(lp710
I64100
aI6666
aa(lp711
I64400
aI6666
aa(lp712
I64700
aI6666
aa(lp713
I65000
aI6666
aa(lp714
I65300
aI6666
aa(lp715
I65600
aI6666
aa(lp716
I65900
aI6666
aa(lp717
I66200
aI6666
aa(lp718
I66500
aI6666
aa(lp719
I66800
aI6666
aa(lp720
I67100
aI6666
aa(lp721
I67400
aI6666
aa(lp722
I67700
aI6666
aa(lp723
I68000
aI6666
aa(lp724
I68300
aI6666
aa(lp725
I68600
aI6666
aa(lp726
I68900
aI6666
aa(lp727
I69200
aI6666
aa(lp728
I69500
aI6666
aa(lp729
I69800
aI6666
aa(lp730
I70100
aI9600
aa(lp731
I70400
aI6666
aa(lp732
I70700
aI6666
aa(lp733
I71000
aI6666
aa(lp734
I71300
aI6666
aa(lp735
I71600
aI6666
aa(lp736
I71900
aI6666
aa(lp737
I72200
aI6666
aa(lp738
I72500
aI6666
aa(lp739
I72800
aI6666
aa(lp740
I73100
aI6666
aa(lp741
I73400
aI9600
aa(lp742
I73700
aI6666
aa(lp743
I74000
aI6666
aa(lp744
I74300
aI6666
aa(lp745
I74600
aI6666
aa(lp746
I74900
aI6666
aa(lp747
I75200
aI6666
aa(lp748
I75500
aI6666
aa(lp749
I75800
aI6666
aa(lp750
I76100
aI9600
aa(lp751
I76400
aI6666
aa(lp752
I76700
aI6666
aa(lp753
I77000
aI6666
aa(lp754
I77300
aI6666
aa(lp755
I77600
aI6666
aa(lp756
I77900
aI6666
aa(lp757
I78200
aI6666
aa(lp758
I78500
aI6666
aa(lp759
I78800
aI6666
aa(lp760
I79100
aI6666
aa(lp761
I79400
aI6666
aa(lp762
I79700
aI6666
aa(lp763
I80000
aI9600
aa(lp764
I80300
aI6666
aa(lp765
I80600
aI6666
aa(lp766
I80900
aI6666
aa(lp767
I81200
aI6666
aa(lp768
I81500
aI6666
aa(lp769
I81800
aI6666
aa(lp770
I82100
aI6666
aa(lp771
I82400
aI6666
aa(lp772
I82700
aI6666
aa(lp773
I83000
aI6666
aa(lp774
I83300
aI6666
aa(lp775
I83600
aI6666
aa(lp776
I83900
aI6666
aa(lp777
I84200
aI6666
aa(lp778
I84500
aI6666
aa(lp779
I84800
aI6666
aa(lp780
I85100
aI6666
aa(lp781
I85400
aI6666
aa(lp782
I85700
aI6666
aa(lp783
I86000
aI6666
aa(lp784
I86300
aI6666
aa(lp785
I86600
aI6666
aa(lp786
I86900
aI6666
aa(lp787
I87200
aI6666
aa(lp788
I87500
aI6666
aa(lp789
I87800
aI6666
aa(lp790
I88100
aI6666
aa(lp791
I88400
aI6666
aa(lp792
I88700
aI6666
aa(lp793
I89000
aI6666
aa(lp794
I89300
aI6666
aa(lp795
I89600
aI6666
aa(lp796
I89900
aI6666
aa(lp797
I90200
aI6666
aa(lp798
I90500
aI6666
aa(lp799
I90800
aI6666
aa(lp800
I91100
aI6666
aa(lp801
I91400
aI6666
aa(lp802
I91700
aI6666
aa(lp803
I92000
aI6666
aa(lp804
I92300
aI6666
aa(lp805
I92600
aI6666
aa(lp806
I92900
aI6666
aa(lp807
I93200
aI6666
aa(lp808
I93500
aI6666
aa(lp809
I93800
aI6666
aa(lp810
I94100
aI6666
aa(lp811
I94400
aI6666
aa(lp812
I94700
aI6666
aa(lp813
I95000
aI6666
aa(lp814
I95300
aI6666
aa(lp815
I95600
aI6666
aa(lp816
I95900
aI6666
aa(lp817
I96200
aI6666
aa(lp818
I96500
aI6666
aa(lp819
I96800
aI6666
aa(lp820
I97100
aI6666
aa(lp821
I97400
aI6666
aa(lp822
I97700
aI9600
aa(lp823
I98000
aI6666
aa(lp824
I98300
aI6666
aa(lp825
I98600
aI6666
aa(lp826
I98900
aI6666
aa(lp827
I99200
aI6666
aa(lp828
I99500
aI6666
aa(lp829
I99800
aI6666
aa(lp830
I100100
aI6666
aa(lp831
I100400
aI6666
aa(lp832
I100700
aI6666
aa(lp833
I101000
aI6666
aa(lp834
I101300
aI6666
aa(lp835
I101600
aI6666
aa(lp836
I101900
aI6666
aa(lp837
I102200
aI6666
aa(lp838
I102500
aI6666
aa(lp839
I102800
aI6666
aa(lp840
I103100
aI6666
aa(lp841
I103400
aI9600
aa(lp842
I103700
aI6666
aa(lp843
I104000
aI6666
aa(lp844
I104300
aI6666
aa(lp845
I104600
aI6666
aa(lp846
I104900
aI6666
aa(lp847
I105200
aI6666
aa(lp848
I105500
aI6666
aa(lp849
I105800
aI6666
aa(lp850
I106100
aI6666
aa(lp851
I106400
aI6666
aa(lp852
I106700
aI6666
aa(lp853
I107000
aI6666
aa(lp854
I107300
aI9600
aa(lp855
I107600
aI6666
aa(lp856
I107900
aI9600
aa(lp857
I108200
aI6666
aa(lp858
I108500
aI6666
aa(lp859
I108800
aI6666
aa(lp860
I109100
aI6666
aa(lp861
I109400
aI6666
aa(lp862
I109700
aI6666
aa(lp863
I110000
aI6666
aa(lp864
I110300
aI6666
aa(lp865
I110600
aI6666
aa(lp866
I110900
aI9600
aa(lp867
I111200
aI6666
aa(lp868
I111500
aI6666
aa(lp869
I111800
aI6666
aa(lp870
I112100
aI6666
aa(lp871
I112400
aI6666
aa(lp872
I112700
aI6666
aa(lp873
I113000
aI6666
aa(lp874
I113300
aI6666
aa(lp875
I113600
aI6666
aa(lp876
I113900
aI6666
aa(lp877
I114200
aI6666
aa(lp878
I114500
aI6666
aa(lp879
I114800
aI6666
aa(lp880
I115100
aI6666
aa(lp881
I115400
aI6666
aa(lp882
I115700
aI6666
aa(lp883
I116000
aI6666
aa(lp884
I116300
aI6666
aa(lp885
I116600
aI6666
aa(lp886
I116900
aI6666
aa(lp887
I117200
aI6666
aa(lp888
I117500
aI6666
aa(lp889
I117800
aI6666
aa(lp890
I118100
aI6666
aa(lp891
I118400
aI6666
aa(lp892
I118700
aI6666
aa(lp893
I119000
aI6666
aa(lp894
I119300
aI6666
aa(lp895
I119600
aI6666
aa(lp896
I119900
aI6666
aa(lp897
I120200
aI6666
aa(lp898
I120500
aI6666
aa(lp899
I120800
aI6666
aa(lp900
I121100
aI6666
aa(lp901
I121400
aI6666
aa(lp902
I121700
aI6666
aa(lp903
I122000
aI6666
aa(lp904
I122300
aI6666
aa(lp905
I122600
aI6666
aa(lp906
I122900
aI6666
aa(lp907
I123200
aI6666
aa(lp908
I123500
aI6666
aa(lp909
I123800
aI6666
aa(lp910
I124100
aI6666
aa(lp911
I124400
aI6666
aa(lp912
I124700
aI6666
aa(lp913
I125000
aI6666
aa(lp914
I125300
aI6666
aa(lp915
I125600
aI6666
aa(lp916
I125900
aI6666
aa(lp917
I126200
aI6666
aa(lp918
I126500
aI6666
aa(lp919
I126800
aI6666
aa(lp920
I127100
aI6666
aa(lp921
I127400
aI6666
aa(lp922
I127700
aI6666
aa(lp923
I128000
aI6666
aa(lp924
I128300
aI6666
aa(lp925
I128600
aI6666
aa(lp926
I128900
aI6666
aa(lp927
I129200
aI9600
aa(lp928
I129500
aI6666
aa(lp929
I129800
aI6666
aa(lp930
I130100
aI6666
aa(lp931
I130400
aI6666
aa(lp932
I130700
aI6666
aa(lp933
I131000
aI6666
aa(lp934
I131300
aI6666
aa(lp935
I131600
aI6666
aa(lp936
I131900
aI6666
aa(lp937
I132200
aI6666
aa(lp938
I132500
aI6666
aa(lp939
I132800
aI6666
aa(lp940
I133100
aI6666
aa(lp941
I133400
aI6666
aa(lp942
I133700
aI6666
aa(lp943
I134000
aI6666
aa(lp944
I134300
aI6666
aa(lp945
I134600
aI6666
aa(lp946
I134900
aI6666
aa(lp947
I135200
aI6666
aa(lp948
I135500
aI6666
aa(lp949
I135800
aI6666
aa(lp950
I136100
aI6666
aa(lp951
I136400
aI6666
aa(lp952
I136700
aI6666
aa(lp953
I137000
aI6666
aa(lp954
I137300
aI6666
aa(lp955
I137600
aI6666
aa(lp956
I137900
aI6666
aa(lp957
I138200
aI6666
aa(lp958
I138500
aI6666
aa(lp959
I138800
aI6666
aa(lp960
I139100
aI6666
aa(lp961
I139400
aI6666
aa(lp962
I139700
aI6666
aa(lp963
I140000
aI6666
aa(lp964
I140300
aI6666
aa(lp965
I140600
aI6666
aa(lp966
I140900
aI6666
aa(lp967
I141200
aI6666
aa(lp968
I141500
aI6666
aa(lp969
I141800
aI6666
aa(lp970
I142100
aI6666
aa(lp971
I142400
aI6666
aa(lp972
I142700
aI6666
aa(lp973
I143000
aI6666
aa(lp974
I143300
aI6666
aa(lp975
I143600
aI9600
aa(lp976
I143900
aI6666
aa(lp977
I144200
aI6666
aa(lp978
I144500
aI6666
aa(lp979
I144800
aI6666
aa(lp980
I145100
aI6666
aa(lp981
I145400
aI6666
aa(lp982
I145700
aI6666
aa(lp983
I146000
aI6666
aa(lp984
I146300
aI6666
aa(lp985
I146600
aI6666
aa(lp986
I146900
aI6666
aa(lp987
I147200
aI6666
aa(lp988
I147500
aI6666
aa(lp989
I147800
aI6666
aa(lp990
I148100
aI6666
aa(lp991
I148400
aI6666
aa(lp992
I148700
aI6666
aa(lp993
I149000
aI6666
aa(lp994
I149300
aI6666
aa(lp995
I149600
aI6666
aa(lp996
I149900
aI6666
aa(lp997
I150200
aI6666
aa(lp998
I150500
aI6666
aa(lp999
I150800
aI6666
aa(lp1000
I151100
aI6666
aa(lp1001
I151400
aI6666
aa(lp1002
I151700
aI6666
aas.