(dp0
I70033
(lp1
(dp2
I0
(dp3
S'info_dict'
p4
(dp5
S'post_synapse_id'
p6
I0
sS'post_netcon'
p7
(dp8
S'delay'
p9
cnumpy.core.multiarray
scalar
p10
(cnumpy
dtype
p11
(S'f8'
p12
I0
I1
tp13
Rp14
(I3
S'<'
p15
NNNI-1
I-1
I0
tp16
bS'\x00\x00\x00\x00\xb6>\xfd?'
p17
tp18
Rp19
sS'weight'
p20
g10
(g14
S'\x00\x00\x00\x00pj\xd3?'
p21
tp22
Rp23
ssS'pre_cell_id'
p24
I39074
sS'post_cell_id'
p25
I70033
sssI1
(dp26
g4
(dp27
g6
I1
sg7
(dp28
g9
g10
(g14
S'\x00\x00\x00`\xdf\x83\xfd?'
p29
tp30
Rp31
sg20
g10
(g14
S'\x00\x00\x00 \xdf\xf6\xe3?'
p32
tp33
Rp34
ssg24
I39074
sg25
I70033
sssI2
(dp35
g4
(dp36
g6
I2
sg7
(dp37
g9
g10
(g14
S'\x00\x00\x00\xa0#\xd4\xfd?'
p38
tp39
Rp40
sg20
g10
(g14
S'\x00\x00\x00 \x8bT\xc4?'
p41
tp42
Rp43
ssg24
I39074
sg25
I70033
sssI3
(dp44
g4
(dp45
g6
I3
sg7
(dp46
g9
g10
(g14
S'\x00\x00\x00\xc0\xfd\xf0\xe2?'
p47
tp48
Rp49
sg20
g10
(g14
S'\x00\x00\x00`"s\xc6?'
p50
tp51
Rp52
ssg24
I63109
sg25
I70033
sssI4
(dp53
g4
(dp54
g6
I4
sg7
(dp55
g9
g10
(g14
S'\x00\x00\x00@\xd2\xad\xe3?'
p56
tp57
Rp58
sg20
g10
(g14
S'\x00\x00\x00`\x94\xd3\xc6?'
p59
tp60
Rp61
ssg24
I63109
sg25
I70033
sssI5
(dp62
g4
(dp63
g6
I5
sg7
(dp64
g9
g10
(g14
S'\x00\x00\x00\xc0\xf5U\xe4?'
p65
tp66
Rp67
sg20
g10
(g14
S'\x00\x00\x00\x00\xb9j\xd1?'
p68
tp69
Rp70
ssg24
I63109
sg25
I70033
sssI6
(dp71
g4
(dp72
g6
I6
sg7
(dp73
g9
g10
(g14
S'\x00\x00\x00\xa0R\x96\xf6?'
p74
tp75
Rp76
sg20
g10
(g14
S'\x00\x00\x00`|#\xe4?'
p77
tp78
Rp79
ssg24
I63168
sg25
I70033
sssI7
(dp80
g4
(dp81
g6
I7
sg7
(dp82
g9
g10
(g14
S'\x00\x00\x00 \xfc\xde\xf3?'
p83
tp84
Rp85
sg20
g10
(g14
S'\x00\x00\x00 \x07\xb0\xd5?'
p86
tp87
Rp88
ssg24
I63168
sg25
I70033
sssI8
(dp89
g4
(dp90
g6
I8
sg7
(dp91
g9
g10
(g14
S'\x00\x00\x00\xc0\xee4\xf4?'
p92
tp93
Rp94
sg20
g10
(g14
S'\x00\x00\x00@<}\xd1?'
p95
tp96
Rp97
ssg24
I63168
sg25
I70033
sssI9
(dp98
g4
(dp99
g6
I9
sg7
(dp100
g9
g10
(g14
S'\x00\x00\x00 {\x82\xdc?'
p101
tp102
Rp103
sg20
g10
(g14
S'\x00\x00\x00\xc0\x8e\x8d\xdd?'
p104
tp105
Rp106
ssg24
I63917
sg25
I70033
sssI10
(dp107
g4
(dp108
g6
I10
sg7
(dp109
g9
g10
(g14
S'\x00\x00\x00@\xe5\r\xdd?'
p110
tp111
Rp112
sg20
g10
(g14
S'\x00\x00\x00\xc0\x1e\xc6\xd4?'
p113
tp114
Rp115
ssg24
I63917
sg25
I70033
sssI11
(dp116
g4
(dp117
g6
I11
sg7
(dp118
g9
g10
(g14
S'\x00\x00\x00`\xfeu\xdd?'
p119
tp120
Rp121
sg20
g10
(g14
S'\x00\x00\x00\x805\xae\xdf?'
p122
tp123
Rp124
ssg24
I63917
sg25
I70033
sssI12
(dp125
g4
(dp126
g6
I12
sg7
(dp127
g9
g10
(g14
S'\x00\x00\x00\xe0\xb5\xb4\xde?'
p128
tp129
Rp130
sg20
g10
(g14
S'\x00\x00\x00 \xfaU\xc2?'
p131
tp132
Rp133
ssg24
I63917
sg25
I70033
sssI13
(dp134
g4
(dp135
g6
I13
sg7
(dp136
g9
g10
(g14
S'\x00\x00\x00\x00,\x16\xe4?'
p137
tp138
Rp139
sg20
g10
(g14
S'\x00\x00\x00`\x90I\xde?'
p140
tp141
Rp142
ssg24
I63917
sg25
I70033
sssI14
(dp143
g4
(dp144
g6
I14
sg7
(dp145
g9
g10
(g14
S'\x00\x00\x00\x80&\xd9\xe3?'
p146
tp147
Rp148
sg20
g10
(g14
S'\x00\x00\x00`\x16\x9f\xd6?'
p149
tp150
Rp151
ssg24
I64341
sg25
I70033
sssI15
(dp152
g4
(dp153
g6
I15
sg7
(dp154
g9
g10
(g14
S'\x00\x00\x00\xa0Oy\xe4?'
p155
tp156
Rp157
sg20
g10
(g14
S'\x00\x00\x00\xc0Q\x1b\xe0?'
p158
tp159
Rp160
ssg24
I64341
sg25
I70033
sssI16
(dp161
g4
(dp162
g6
I16
sg7
(dp163
g9
g10
(g14
S'\x00\x00\x00\xe0Y\x16\xe5?'
p164
tp165
Rp166
sg20
g10
(g14
S'\x00\x00\x00\x80\xeeL\xe0?'
p167
tp168
Rp169
ssg24
I64341
sg25
I70033
sssI17
(dp170
g4
(dp171
g6
I17
sg7
(dp172
g9
g10
(g14
S'\x00\x00\x00\xa0\xad\xfa\xf6?'
p173
tp174
Rp175
sg20
g10
(g14
S'\x00\x00\x00\xa0(|\xd9?'
p176
tp177
Rp178
ssg24
I65099
sg25
I70033
sssI18
(dp179
g4
(dp180
g6
I18
sg7
(dp181
g9
g10
(g14
S'\x00\x00\x00`c@\xf3?'
p182
tp183
Rp184
sg20
g10
(g14
S'\x00\x00\x00\xc0\xadc\xe8?'
p185
tp186
Rp187
ssg24
I65099
sg25
I70033
sssI19
(dp188
g4
(dp189
g6
I19
sg7
(dp190
g9
g10
(g14
S'\x00\x00\x00`\xf0\x8b\xf3?'
p191
tp192
Rp193
sg20
g10
(g14
S'\x00\x00\x00@R\x84\xef?'
p194
tp195
Rp196
ssg24
I65099
sg25
I70033
sssI20
(dp197
g4
(dp198
g6
I20
sg7
(dp199
g9
g10
(g14
S'\x00\x00\x00\xa0e\xe8\xf3?'
p200
tp201
Rp202
sg20
g10
(g14
S'\x00\x00\x00\xa0\xe3\xb4\xf4?'
p203
tp204
Rp205
ssg24
I65099
sg25
I70033
sssI21
(dp206
g4
(dp207
g6
I21
sg7
(dp208
g9
g10
(g14
S'\x00\x00\x00\xe0\xef\xfb\xf3?'
p209
tp210
Rp211
sg20
g10
(g14
S'\x00\x00\x00\xc0\xb4\x0b\xe8?'
p212
tp213
Rp214
ssg24
I65099
sg25
I70033
sssI22
(dp215
g4
(dp216
g6
I22
sg7
(dp217
g9
g10
(g14
S'\x00\x00\x00\xe0\xffA\xdd?'
p218
tp219
Rp220
sg20
g10
(g14
S'\x00\x00\x00`hW\xd8?'
p221
tp222
Rp223
ssg24
I66451
sg25
I70033
sssI23
(dp224
g4
(dp225
g6
I23
sg7
(dp226
g9
g10
(g14
S'\x00\x00\x00\xc0F7\xde?'
p227
tp228
Rp229
sg20
g10
(g14
S'\x00\x00\x00\xe0\xd1C\xe4?'
p230
tp231
Rp232
ssg24
I66451
sg25
I70033
sssI24
(dp233
g4
(dp234
g6
I24
sg7
(dp235
g9
g10
(g14
S'\x00\x00\x00`:m\xde?'
p236
tp237
Rp238
sg20
g10
(g14
S'\x00\x00\x00\xa0\xdc\x1d\xe3?'
p239
tp240
Rp241
ssg24
I66451
sg25
I70033
sssI25
(dp242
g4
(dp243
g6
I25
sg7
(dp244
g9
g10
(g14
S'\x00\x00\x00@\x13\xa1\xdf?'
p245
tp246
Rp247
sg20
g10
(g14
S'\x00\x00\x00@\xcb\x87\xd7?'
p248
tp249
Rp250
ssg24
I66451
sg25
I70033
sssI26
(dp251
g4
(dp252
g6
I26
sg7
(dp253
g9
g10
(g14
S'\x00\x00\x00\xa0W\xc9\xd6?'
p254
tp255
Rp256
sg20
g10
(g14
S'\x00\x00\x00\xe0\xa0\xae\xeb?'
p257
tp258
Rp259
ssg24
I69437
sg25
I70033
sssI27
(dp260
g4
(dp261
g6
I27
sg7
(dp262
g9
g10
(g14
S'\x00\x00\x00\x80\xd3\x9e\xd7?'
p263
tp264
Rp265
sg20
g10
(g14
S'\x00\x00\x00\x80\xc9\xa0\xf2?'
p266
tp267
Rp268
ssg24
I69437
sg25
I70033
sssI28
(dp269
g4
(dp270
g6
I28
sg7
(dp271
g9
g10
(g14
S'\x00\x00\x00\xa0\xa9\xcb\xd8?'
p272
tp273
Rp274
sg20
g10
(g14
S'\x00\x00\x00\xa035\xf0?'
p275
tp276
Rp277
ssg24
I69437
sg25
I70033
sssI29
(dp278
g4
(dp279
g6
I29
sg7
(dp280
g9
g10
(g14
S'\x00\x00\x00\xe0\\\xab\xd7?'
p281
tp282
Rp283
sg20
g10
(g14
S'\x00\x00\x00 \xf1\xf8\xdb?'
p284
tp285
Rp286
ssg24
I69437
sg25
I70033
sssI30
(dp287
g4
(dp288
g6
I30
sg7
(dp289
g9
g10
(g14
S'\x00\x00\x00`c\xe8\xd8?'
p290
tp291
Rp292
sg20
g10
(g14
S'\x00\x00\x00\x00.\x89\xe0?'
p293
tp294
Rp295
ssg24
I69437
sg25
I70033
sssI31
(dp296
g4
(dp297
g6
I31
sg7
(dp298
g9
g10
(g14
S'\x00\x00\x00\x80t\xc2\xfa?'
p299
tp300
Rp301
sg20
g10
(g14
S'\x00\x00\x00`?*\xe6?'
p302
tp303
Rp304
ssg24
I69437
sg25
I70033
sssI32
(dp305
g4
(dp306
g6
I32
sg7
(dp307
g9
g10
(g14
S'\x00\x00\x00\xc08{\xfb?'
p308
tp309
Rp310
sg20
g10
(g14
S'\x00\x00\x00\x80\xb8S\xec?'
p311
tp312
Rp313
ssg24
I69437
sg25
I70033
sssI33
(dp314
g4
(dp315
g6
I33
sg7
(dp316
g9
g10
(g14
S'\x00\x00\x00\xc0vj\xfc?'
p317
tp318
Rp319
sg20
g10
(g14
S'\x00\x00\x00`\xc8D\xe1?'
p320
tp321
Rp322
ssg24
I159879
sg25
I70033
sssI34
(dp323
g4
(dp324
g6
I34
sg7
(dp325
g9
g10
(g14
S'\x00\x00\x00\xe0\x91\xba\xfc?'
p326
tp327
Rp328
sg20
g10
(g14
S'\x00\x00\x00 \xc4o\xc8?'
p329
tp330
Rp331
ssg24
I159879
sg25
I70033
sssI35
(dp332
g4
(dp333
g6
I35
sg7
(dp334
g9
g10
(g14
S'\x00\x00\x00@.\x08\xfd?'
p335
tp336
Rp337
sg20
g10
(g14
S'\x00\x00\x00`C\x17\xd9?'
p338
tp339
Rp340
ssg24
I159879
sg25
I70033
sssI36
(dp341
g4
(dp342
g6
I36
sg7
(dp343
g9
g10
(g14
S'\x00\x00\x00\xe0\x90|\x00@'
p344
tp345
Rp346
sg20
g10
(g14
S'\x00\x00\x00 _\x90\xd7?'
p347
tp348
Rp349
ssg24
I192587
sg25
I70033
sssI37
(dp350
g4
(dp351
g6
I37
sg7
(dp352
g9
g10
(g14
S'\x00\x00\x00\xe0\x0e\xb1\x00@'
p353
tp354
Rp355
sg20
g10
(g14
S'\x00\x00\x00\xa0\xdc\xfa\xe2?'
p356
tp357
Rp358
ssg24
I192587
sg25
I70033
sssI38
(dp359
g4
(dp360
g6
I38
sg7
(dp361
g9
g10
(g14
S'\x00\x00\x00\xc0\x16\xb0\x00@'
p362
tp363
Rp364
sg20
g10
(g14
S'\x00\x00\x00\xc0*\x1d\xf2?'
p365
tp366
Rp367
ssg24
I192587
sg25
I70033
sssI39
(dp368
g4
(dp369
g6
I39
sg7
(dp370
g9
g10
(g14
S'\x00\x00\x00@\xe7\xd9\x00@'
p371
tp372
Rp373
sg20
g10
(g14
S'\x00\x00\x00\xa0\xc0\xd8\xe0?'
p374
tp375
Rp376
ssg24
I192587
sg25
I70033
sssa(dp377
I0
(dp378
g24
I39074
sS'post_segx'
p379
F1e-07
sg4
(dp380
S'post_sec_id'
p381
I0
sS'synapse_id'
p382
I0
sS'randseed3'
p383
NsS'randseed2'
p384
I176969
sS'randseed1'
p385
I100
sg379
F1e-07
sS'synapse_parameters'
p386
(dp387
S'Dep'
p388
F664.0
sS'Fac'
p389
F15.0
sS'Use'
p390
F0.08567187289751893
sS'tau_d_AMPA'
p391
F1.6650245189666748
ssS'syn_type'
p392
I117
sS'synapseconfigure_cmds'
p393
(lp394
S'%s.mg = 1.0'
p395
aS'%s.Use *= 0.174246913125'
p396
aS'%s.NMDA_ratio = 0.8'
p397
asg24
I39074
sS'mech_name'
p398
S'ProbAMPANMDA_EMS'
p399
sS'post_sec_name'
p400
S'soma[0]'
p401
sg25
I70033
ssg400
S'soma[0]'
p402
ssI1
(dp403
g24
I39074
sg379
F1e-07
sg4
(dp404
g381
I0
sg382
I1
sg383
Nsg384
I176969
sg385
I100100
sg379
F1e-07
sg386
(dp405
g388
F683.0
sg389
F21.0
sg390
F0.08966106009164003
sg391
F1.871069312095642
ssg392
I117
sg393
(lp406
g395
ag396
ag397
asg24
I39074
sg398
g399
sg400
S'soma[0]'
p407
sg25
I70033
ssg400
S'soma[0]'
p408
ssI2
(dp409
g24
I39074
sg379
F1e-07
sg4
(dp410
g381
I0
sg382
I2
sg383
Nsg384
I176969
sg385
I200100
sg379
F1e-07
sg386
(dp411
g388
F655.0
sg389
F12.0
sg390
F0.08387288002924506
sg391
F1.572105050086975
ssg392
I117
sg393
(lp412
g395
ag396
ag397
asg24
I39074
sg398
g399
sg400
S'soma[0]'
p413
sg25
I70033
ssg400
S'soma[0]'
p414
ssI3
(dp415
g24
I63109
sg379
F1e-07
sg4
(dp416
g381
I0
sg382
I3
sg383
Nsg384
I176969
sg385
I300100
sg379
F1e-07
sg386
(dp417
g388
F656.0
sg389
F13.0
sg390
F0.0840789731391267
sg391
F1.582749843597412
ssg392
I117
sg393
(lp418
g395
ag396
ag397
asg24
I63109
sg398
g399
sg400
S'soma[0]'
p419
sg25
I70033
ssg400
S'soma[0]'
p420
ssI4
(dp421
g24
I63109
sg379
F1e-07
sg4
(dp422
g381
I0
sg382
I4
sg383
Nsg384
I176969
sg385
I400100
sg379
F1e-07
sg386
(dp423
g388
F656.0
sg389
F13.0
sg390
F0.0841156042978715
sg391
F1.584641933441162
ssg392
I117
sg393
(lp424
g395
ag396
ag397
asg24
I63109
sg398
g399
sg400
S'soma[0]'
p425
sg25
I70033
ssg400
S'soma[0]'
p426
ssI5
(dp427
g24
I63109
sg379
F1e-07
sg4
(dp428
g381
I0
sg382
I5
sg383
Nsg384
I176969
sg385
I500100
sg379
F1e-07
sg386
(dp429
g388
F662.0
sg389
F14.0
sg390
F0.08528314329018127
sg391
F1.6449463367462158
ssg392
I117
sg393
(lp430
g395
ag396
ag397
asg24
I63109
sg398
g399
sg400
S'soma[0]'
p431
sg25
I70033
ssg400
S'soma[0]'
p432
ssI6
(dp433
g24
I63168
sg379
g10
(g14
S'J^\xfcs\xae\x94\xc9?'
p434
tp435
Rp436
sg4
(dp437
g381
I47
sg382
I6
sg383
Nsg384
I176969
sg385
I600100
sg379
g436
sg386
(dp438
g388
F684.0
sg389
F21.0
sg390
F0.08972883864053954
sg391
F1.874570369720459
ssg392
I117
sg393
(lp439
g395
ag396
ag397
asg24
I63168
sg398
g399
sg400
S'dend[9]'
p440
sg25
I70033
ssg400
S'dend[9]'
p441
ssI7
(dp442
g24
I63168
sg379
F1e-07
sg4
(dp443
g381
I0
sg382
I7
sg383
Nsg384
I176969
sg385
I700100
sg379
F1e-07
sg386
(dp444
g388
F666.0
sg389
F16.0
sg390
F0.08611367977640899
sg391
F1.6878442764282227
ssg392
I117
sg393
(lp445
g395
ag396
ag397
asg24
I63168
sg398
g399
sg400
S'soma[0]'
p446
sg25
I70033
ssg400
S'soma[0]'
p447
ssI8
(dp448
g24
I63168
sg379
F1e-07
sg4
(dp449
g381
I0
sg382
I8
sg383
Nsg384
I176969
sg385
I800100
sg379
F1e-07
sg386
(dp450
g388
F662.0
sg389
F14.0
sg390
F0.08529721102608143
sg391
F1.6456727981567383
ssg392
I117
sg393
(lp451
g395
ag396
ag397
asg24
I63168
sg398
g399
sg400
S'soma[0]'
p452
sg25
I70033
ssg400
S'soma[0]'
p453
ssI9
(dp454
g24
I63917
sg379
F1e-07
sg4
(dp455
g381
I0
sg382
I9
sg383
Nsg384
I176969
sg385
I900100
sg379
F1e-07
sg386
(dp456
g388
F674.0
sg389
F18.0
sg390
F0.0876432721267692
sg391
F1.7668489217758179
ssg392
I117
sg393
(lp457
g395
ag396
ag397
asg24
I63917
sg398
g399
sg400
S'soma[0]'
p458
sg25
I70033
ssg400
S'soma[0]'
p459
ssI10
(dp460
g24
I63917
sg379
F1e-07
sg4
(dp461
g381
I0
sg382
I10
sg383
Nsg384
I176969
sg385
I1000100
sg379
F1e-07
sg386
(dp462
g388
F665.0
sg389
F15.0
sg390
F0.08593599217238702
sg391
F1.6786664724349976
ssg392
I117
sg393
(lp463
g395
ag396
ag397
asg24
I63917
sg398
g399
sg400
S'soma[0]'
p464
sg25
I70033
ssg400
S'soma[0]'
p465
ssI11
(dp466
g24
I63917
sg379
F1e-07
sg4
(dp467
g381
I0
sg382
I11
sg383
Nsg384
I176969
sg385
I1100100
sg379
F1e-07
sg386
(dp468
g388
F676.0
sg389
F18.0
sg390
F0.08805701623533649
sg391
F1.7882193326950073
ssg392
I117
sg393
(lp469
g395
ag396
ag397
asg24
I63917
sg398
g399
sg400
S'soma[0]'
p470
sg25
I70033
ssg400
S'soma[0]'
p471
ssI12
(dp472
g24
I63917
sg379
F1e-07
sg4
(dp473
g381
I0
sg382
I12
sg383
Nsg384
I176969
sg385
I1200100
sg379
F1e-07
sg386
(dp474
g388
F654.0
sg389
F12.0
sg390
F0.0836789540309227
sg391
F1.5620884895324707
ssg392
I117
sg393
(lp475
g395
ag396
ag397
asg24
I63917
sg398
g399
sg400
S'soma[0]'
p476
sg25
I70033
ssg400
S'soma[0]'
p477
ssI13
(dp478
g24
I63917
sg379
g10
(g14
S'\xdb\x8eM\xab\xe8\xc0\xb9?'
p479
tp480
Rp481
sg4
(dp482
g381
I41
sg382
I13
sg383
Nsg384
I176969
sg385
I1300100
sg379
g481
sg386
(dp483
g388
F674.0
sg389
F18.0
sg390
F0.0877860889863949
sg391
F1.7742257118225098
ssg392
I117
sg393
(lp484
g395
ag396
ag397
asg24
I63917
sg398
g399
sg400
S'dend[3]'
p485
sg25
I70033
ssg400
S'dend[3]'
p486
ssI14
(dp487
g24
I64341
sg379
F1e-07
sg4
(dp488
g381
I0
sg382
I14
sg383
Nsg384
I176969
sg385
I1400100
sg379
F1e-07
sg386
(dp489
g388
F667.0
sg389
F16.0
sg390
F0.0862952828742917
sg391
F1.6972242593765259
ssg392
I117
sg393
(lp490
g395
ag396
ag397
asg24
I64341
sg398
g399
sg400
S'soma[0]'
p491
sg25
I70033
ssg400
S'soma[0]'
p492
ssI15
(dp493
g24
I64341
sg379
F1e-07
sg4
(dp494
g381
I0
sg382
I15
sg383
Nsg384
I176969
sg385
I1500100
sg379
F1e-07
sg386
(dp495
g388
F676.0
sg389
F18.0
sg390
F0.08816065738450417
sg391
F1.7935724258422852
ssg392
I117
sg393
(lp496
g395
ag396
ag397
asg24
I64341
sg398
g399
sg400
S'soma[0]'
p497
sg25
I70033
ssg400
S'soma[0]'
p498
ssI16
(dp499
g24
I64341
sg379
F1e-07
sg4
(dp500
g381
I0
sg382
I16
sg383
Nsg384
I176969
sg385
I1600100
sg379
F1e-07
sg386
(dp501
g388
F676.0
sg389
F19.0
sg390
F0.08823603843076722
sg391
F1.7974656820297241
ssg392
I117
sg393
(lp502
g395
ag396
ag397
asg24
I64341
sg398
g399
sg400
S'soma[0]'
p503
sg25
I70033
ssg400
S'soma[0]'
p504
ssI17
(dp505
g24
I65099
sg379
g10
(g14
S'0\x06\xa1\x8c\xe4\x95\xee?'
p506
tp507
Rp508
sg4
(dp509
g381
I45
sg382
I17
sg383
Nsg384
I176969
sg385
I1700100
sg379
g508
sg386
(dp510
g388
F389.0
sg389
F14.0
sg390
F0.06277847825273257
sS'tau_d_GABAA'
p511
F6.576812267303467
sS'tau_r_GABAA'
p512
F0.30152736589649776
ssg392
I1
sg393
(lp513
S'%s.e_GABAA = -80.0 %s.e_GABAB = -75.8354310081'
p514
aS'%s.Use *= 0.423677166383'
p515
asg24
I65099
sg398
S'ProbGABAAB_EMS'
p516
sg400
S'dend[7]'
p517
sg25
I70033
ssg400
S'dend[7]'
p518
ssI18
(dp519
g24
I65099
sg379
F1e-07
sg4
(dp520
g381
I0
sg382
I18
sg383
Nsg384
I176969
sg385
I1800100
sg379
F1e-07
sg386
(dp521
g388
F657.0
sg389
F20.0
sg390
F0.09922658792540548
sg511
F8.032670974731445
sg512
F0.3190715624453598
ssg392
I1
sg393
(lp522
g514
ag515
asg24
I65099
sg398
g516
sg400
S'soma[0]'
p523
sg25
I70033
ssg400
S'soma[0]'
p524
ssI19
(dp525
g24
I65099
sg379
F1e-07
sg4
(dp526
g381
I0
sg382
I19
sg383
Nsg384
I176969
sg385
I1900100
sg379
F1e-07
sg386
(dp527
g388
F821.0
sg389
F24.0
sg390
F0.12153165856764772
sg511
F8.923609733581543
sg512
F0.16756560435624082
ssg392
I1
sg393
(lp528
g514
ag515
asg24
I65099
sg398
g516
sg400
S'soma[0]'
p529
sg25
I70033
ssg400
S'soma[0]'
p530
ssI20
(dp531
g24
I65099
sg379
F1e-07
sg4
(dp532
g381
I0
sg382
I20
sg383
Nsg384
I176969
sg385
I2000100
sg379
F1e-07
sg386
(dp533
g388
F1049.0
sg389
F29.0
sg390
F0.15250152532717848
sg511
F10.160649299621582
sg512
F0.029203960533459413
ssg392
I1
sg393
(lp534
g514
ag515
asg24
I65099
sg398
g516
sg400
S'soma[0]'
p535
sg25
I70033
ssg400
S'soma[0]'
p536
ssI21
(dp537
g24
I65099
sg379
F1e-07
sg4
(dp538
g381
I0
sg382
I21
sg383
Nsg384
I176969
sg385
I2100100
sg379
F1e-07
sg386
(dp539
g388
F649.0
sg389
F20.0
sg390
F0.09815118351203796
sg511
F7.989716053009033
sg512
F0.09483086642192519
ssg392
I1
sg393
(lp540
g514
ag515
asg24
I65099
sg398
g516
sg400
S'soma[0]'
p541
sg25
I70033
ssg400
S'soma[0]'
p542
ssI22
(dp543
g24
I66451
sg379
F1e-07
sg4
(dp544
g381
I0
sg382
I22
sg383
Nsg384
I176969
sg385
I2200100
sg379
F1e-07
sg386
(dp545
g388
F669.0
sg389
F16.0
sg390
F0.0866297771793993
sg391
F1.7145010232925415
ssg392
I117
sg393
(lp546
g395
ag396
ag397
asg24
I66451
sg398
g399
sg400
S'soma[0]'
p547
sg25
I70033
ssg400
S'soma[0]'
p548
ssI23
(dp549
g24
I66451
sg379
F1e-07
sg4
(dp550
g381
I0
sg382
I23
sg383
Nsg384
I176969
sg385
I2300100
sg379
F1e-07
sg386
(dp551
g388
F684.0
sg389
F21.0
sg390
F0.08977796406749246
sg391
F1.8771077394485474
ssg392
I117
sg393
(lp552
g395
ag396
ag397
asg24
I66451
sg398
g399
sg400
S'soma[0]'
p553
sg25
I70033
ssg400
S'soma[0]'
p554
ssI24
(dp555
g24
I66451
sg379
F1e-07
sg4
(dp556
g381
I0
sg382
I24
sg383
Nsg384
I176969
sg385
I2400100
sg379
F1e-07
sg386
(dp557
g388
F682.0
sg389
F20.0
sg390
F0.08933135889108607
sg391
F1.8540397882461548
ssg392
I117
sg393
(lp558
g395
ag396
ag397
asg24
I66451
sg398
g399
sg400
S'soma[0]'
p559
sg25
I70033
ssg400
S'soma[0]'
p560
ssI25
(dp561
g24
I66451
sg379
F1e-07
sg4
(dp562
g381
I0
sg382
I25
sg383
Nsg384
I176969
sg385
I2500100
sg379
F1e-07
sg386
(dp563
g388
F668.0
sg389
F16.0
sg390
F0.08647206170984466
sg391
F1.7063548564910889
ssg392
I117
sg393
(lp564
g395
ag396
ag397
asg24
I66451
sg398
g399
sg400
S'soma[0]'
p565
sg25
I70033
ssg400
S'soma[0]'
p566
ssI26
(dp567
g24
I69437
sg379
F1e-07
sg4
(dp568
g381
I0
sg382
I26
sg383
Nsg384
I176969
sg385
I2600100
sg379
F1e-07
sg386
(dp569
g388
F733.0
sg389
F22.0
sg390
F0.10953110745860505
sg511
F8.444267272949219
sg512
F0.02784890414689955
ssg392
I1
sg393
(lp570
g514
ag515
asg24
I69437
sg398
g516
sg400
S'soma[0]'
p571
sg25
I70033
ssg400
S'soma[0]'
p572
ssI27
(dp573
g24
I69437
sg379
F1e-07
sg4
(dp574
g381
I0
sg382
I27
sg383
Nsg384
I176969
sg385
I2700100
sg379
F1e-07
sg386
(dp575
g388
F953.0
sg389
F26.0
sg390
F0.1394923264459973
sg511
F9.641018867492676
sg512
F0.32334168770228094
ssg392
I1
sg393
(lp576
g514
ag515
asg24
I69437
sg398
g516
sg400
S'soma[0]'
p577
sg25
I70033
ssg400
S'soma[0]'
p578
ssI28
(dp579
g24
I69437
sg379
F1e-07
sg4
(dp580
g381
I0
sg382
I28
sg383
Nsg384
I176969
sg385
I2800100
sg379
F1e-07
sg386
(dp581
g388
F841.0
sg389
F24.0
sg390
F0.12434426346715288
sg511
F9.035954475402832
sg512
F1.0955558192607109
ssg392
I1
sg393
(lp582
g514
ag515
asg24
I69437
sg398
g516
sg400
S'soma[0]'
p583
sg25
I70033
ssg400
S'soma[0]'
p584
ssI29
(dp585
g24
I69437
sg379
F1e-07
sg4
(dp586
g381
I0
sg382
I29
sg383
Nsg384
I176969
sg385
I2900100
sg379
F1e-07
sg386
(dp587
g388
F417.0
sg389
F15.0
sg390
F0.06667060382530651
sg511
F6.732276916503906
sg512
F0.01331193510078856
ssg392
I1
sg393
(lp588
g514
ag515
asg24
I69437
sg398
g516
sg400
S'soma[0]'
p589
sg25
I70033
ssg400
S'soma[0]'
p590
ssI30
(dp591
g24
I69437
sg379
F1e-07
sg4
(dp592
g381
I0
sg382
I30
sg383
Nsg384
I176969
sg385
I3000100
sg379
F1e-07
sg386
(dp593
g388
F476.0
sg389
F16.0
sg390
F0.07464955026635578
sg511
F7.050982475280762
sg512
F0.03449426124252279
ssg392
I1
sg393
(lp594
g514
ag515
asg24
I69437
sg398
g516
sg400
S'soma[0]'
p595
sg25
I70033
ssg400
S'soma[0]'
p596
ssI31
(dp597
g24
I69437
sg379
F1e-07
sg4
(dp598
g381
I0
sg382
I31
sg383
Nsg384
I176969
sg385
I3100100
sg379
F1e-07
sg386
(dp599
g388
F606.0
sg389
F19.0
sg390
F0.09226566447989411
sg511
F7.754628658294678
sg512
F0.04826744514967223
ssg392
I1
sg393
(lp600
g514
ag515
asg24
I69437
sg398
g516
sg400
S'soma[0]'
p601
sg25
I70033
ssg400
S'soma[0]'
p602
ssI32
(dp603
g24
I69437
sg379
F1e-07
sg4
(dp604
g381
I0
sg382
I32
sg383
Nsg384
I176969
sg385
I3200100
sg379
F1e-07
sg386
(dp605
g388
F747.0
sg389
F22.0
sg390
F0.11154924898263663
sg511
F8.524879455566406
sg512
F0.03838494928144917
ssg392
I1
sg393
(lp606
g514
ag515
asg24
I69437
sg398
g516
sg400
S'soma[0]'
p607
sg25
I70033
ssg400
S'soma[0]'
p608
ssI33
(dp609
g24
I159879
sg379
F1e-07
sg4
(dp610
g381
I0
sg382
I33
sg383
Nsg384
I176969
sg385
I3300100
sg379
F1e-07
sg386
(dp611
g388
F678.0
sg389
F19.0
sg390
F0.0886126009265456
sg391
F1.816915512084961
ssg392
I117
sg393
(lp612
g395
ag396
ag397
asg24
I159879
sg398
g399
sg400
S'soma[0]'
p613
sg25
I70033
ssg400
S'soma[0]'
p614
ssI34
(dp615
g24
I159879
sg379
F1e-07
sg4
(dp616
g381
I0
sg382
I34
sg383
Nsg384
I176969
sg385
I3400100
sg379
F1e-07
sg386
(dp617
g388
F657.0
sg389
F13.0
sg390
F0.08427216692971118
sg391
F1.5927283763885498
ssg392
I117
sg393
(lp618
g395
ag396
ag397
asg24
I159879
sg398
g399
sg400
S'soma[0]'
p619
sg25
I70033
ssg400
S'soma[0]'
p620
ssI35
(dp621
g24
I159879
sg379
F1e-07
sg4
(dp622
g381
I0
sg382
I35
sg383
Nsg384
I176969
sg385
I3500100
sg379
F1e-07
sg386
(dp623
g388
F669.0
sg389
F17.0
sg390
F0.08677552286997653
sg391
F1.7220288515090942
ssg392
I117
sg393
(lp624
g395
ag396
ag397
asg24
I159879
sg398
g399
sg400
S'soma[0]'
p625
sg25
I70033
ssg400
S'soma[0]'
p626
ssI36
(dp627
g24
I192587
sg379
F1e-07
sg4
(dp628
g381
I0
sg382
I36
sg383
Nsg384
I176969
sg385
I3600100
sg379
F1e-07
sg386
(dp629
g388
F367.0
sg389
F13.0
sg390
F0.05977258591915639
sg511
F6.456747055053711
sg512
F0.02680982826906488
ssg392
I1
sg393
(lp630
g514
ag515
asg24
I192587
sg398
g516
sg400
S'soma[0]'
p631
sg25
I70033
ssg400
S'soma[0]'
p632
ssI37
(dp633
g24
I192587
sg379
F1e-07
sg4
(dp634
g381
I0
sg382
I37
sg383
Nsg384
I176969
sg385
I3700100
sg379
F1e-07
sg386
(dp635
g388
F532.0
sg389
F17.0
sg390
F0.08229810373356
sg511
F7.3564910888671875
sg512
F0.025429067567079695
ssg392
I1
sg393
(lp636
g514
ag515
asg24
I192587
sg398
g516
sg400
S'soma[0]'
p637
sg25
I70033
ssg400
S'soma[0]'
p638
ssI38
(dp639
g24
I192587
sg379
F1e-07
sg4
(dp640
g381
I0
sg382
I38
sg383
Nsg384
I176969
sg385
I3800100
sg379
F1e-07
sg386
(dp641
g388
F929.0
sg389
F26.0
sg390
F0.1362743836049878
sg511
F9.512483596801758
sg512
F0.05228864552669763
ssg392
I1
sg393
(lp642
g514
ag515
asg24
I192587
sg398
g516
sg400
S'soma[0]'
p643
sg25
I70033
ssg400
S'soma[0]'
p644
ssI39
(dp645
g24
I192587
sg379
F1e-07
sg4
(dp646
g381
I0
sg382
I39
sg383
Nsg384
I176969
sg385
I3900100
sg379
F1e-07
sg386
(dp647
g388
F483.0
sg389
F16.0
sg390
F0.07562227546533437
sg511
F7.089836120605469
sg512
F0.4415578623483858
ssg392
I1
sg393
(lp648
g514
ag515
asg24
I192587
sg398
g516
sg400
S'soma[0]'
p649
sg25
I70033
ssg400
S'soma[0]'
p650
ssas.